Microchip Technology Inc, vv1_10 (A) 

Tool Name:
  /opt/microchip/xc16/v1.10/bin/bin/../bin/elf-ld

Command:
  -p33FJ256GP710A \
  -o \
  dist/default/production/RollPitchYaw-udb6.X.production.elf \
  -L/opt/microchip/xc16/v1.10/bin/bin/.. \
  -L/opt/microchip/xc16/v1.10/bin/bin/../../lib \
  -L/opt/microchip/xc16/v1.10/bin/bin/../../lib/PIC24E \
  -L/opt/microchip/xc16/v1.10/bin/bin/../../support/PIC24E/gld \
  -L/opt/microchip/xc16/v1.10/bin/bin/../../lib/PIC24F \
  -L/opt/microchip/xc16/v1.10/bin/bin/../../support/PIC24F/gld \
  -L/opt/microchip/xc16/v1.10/bin/bin/../../lib/PIC24H \
  -L/opt/microchip/xc16/v1.10/bin/bin/../../support/PIC24H/gld \
  -L/opt/microchip/xc16/v1.10/bin/bin/../../lib/dsPIC30F \
  -L/opt/microchip/xc16/v1.10/bin/bin/../../support/dsPIC30F/gld \
  -L/opt/microchip/xc16/v1.10/bin/bin/../../lib/dsPIC33E \
  -L/opt/microchip/xc16/v1.10/bin/bin/../../support/dsPIC33E/gld \
  -L/opt/microchip/xc16/v1.10/bin/bin/../../lib/dsPIC33F \
  -L/opt/microchip/xc16/v1.10/bin/bin/../../support/dsPIC33F/gld \
  build/default/production/_ext/1077471063/estWind.o \
  build/default/production/_ext/1077471063/estYawDrift.o \
  build/default/production/_ext/1077471063/gpsParseCommon.o \
  build/default/production/_ext/1077471063/gpsParseSTD.o \
  build/default/production/_ext/1077471063/gpsParseUBX.o \
  build/default/production/_ext/1077471063/mathlibNAV.o \
  build/default/production/_ext/1077471063/rmat.o \
  build/default/production/_ext/1077471063/libDCM.o \
  build/default/production/_ext/1077471063/deadReckoning.o \
  build/default/production/_ext/1077471063/estAltitude.o \
  build/default/production/_ext/1077471063/fbcl.o \
  build/default/production/_ext/1077471063/gpsParseMTEK.o \
  build/default/production/_ext/1077471063/gpsParseNMEA.o \
  build/default/production/_ext/1077454706/background.o \
  build/default/production/_ext/1077454706/libUDB.o \
  build/default/production/_ext/1077454706/analog2digital_udb4.o \
  build/default/production/_ext/1077454706/servoOut.o \
  build/default/production/_ext/1077454706/mpu6000.o \
  build/default/production/_ext/1077454706/analog2digital_udb5.o \
  build/default/production/_ext/1077454706/eeprom_udb4.o \
  build/default/production/_ext/1077454706/traps_asm.o \
  build/default/production/_ext/1077454706/magnetometer.o \
  build/default/production/_ext/1077454706/mcu.o \
  build/default/production/_ext/1077454706/radioIn.o \
  build/default/production/_ext/1077454706/serialIO.o \
  build/default/production/_ext/1077454706/mpu_spi.o \
  build/default/production/_ext/1077454706/analogs.o \
  build/default/production/_ext/1077454706/heartbeat.o \
  build/default/production/_ext/679848855/madd.o \
  build/default/production/_ext/679848855/mmul.o \
  build/default/production/_ext/679848855/mscl.o \
  build/default/production/_ext/679848855/msub.o \
  build/default/production/_ext/679848855/mtrp.o \
  build/default/production/_ext/679848855/vadd.o \
  build/default/production/_ext/679848855/vcon.o \
  build/default/production/_ext/679848855/vcopy.o \
  build/default/production/_ext/679848855/vcor.o \
  build/default/production/_ext/679848855/vdot.o \
  build/default/production/_ext/679848855/vmax.o \
  build/default/production/_ext/679848855/vmin.o \
  build/default/production/_ext/679848855/vmul.o \
  build/default/production/_ext/679848855/vneg.o \
  build/default/production/_ext/679848855/vpow.o \
  build/default/production/_ext/679848855/vscl.o \
  build/default/production/_ext/679848855/vsub.o \
  build/default/production/_ext/679848855/vzpad.o \
  build/default/production/_ext/1472/main.o \
  --defsym=__MPLAB_BUILD=1 \
  -Tp33FJ256GP710A.gld.00 \
  --heap=256 \
  --stack=16 \
  --check-sections \
  --data-init \
  --pack-data \
  --handles \
  --isr \
  --no-gc-sections \
  --fill-upper=0 \
  --stackguard=16 \
  --library-path=../C:/Program Files/Microchip/MPLAB C30/lib \
  --no-force-link \
  --smart-io \
  -Map=dist/default/production/RollPitchYaw-udb6.X.production.map \
  -start-group \
  --library=lega-pic30-elf \
  --library=m-elf \
  --library=lega-c-elf \
  -end-group \

Archive member included because of file (symbol)

/opt/microchip/xc16/v1.10/bin/bin/../../lib/dsPIC33F/libp33FJ256GP710A-elf.a(CloseSPI2.o)
                              build/default/production/_ext/1077454706/mpu_spi.o (_CloseSPI2)
/opt/microchip/xc16/v1.10/bin/bin/../../lib/dsPIC33F/libp33FJ256GP710A-elf.a(ConfigIntSPI2.o)
                              build/default/production/_ext/1077454706/mpu_spi.o (_ConfigIntSPI2)
/opt/microchip/xc16/v1.10/bin/bin/../../lib/dsPIC33F/libp33FJ256GP710A-elf.a(OpenSPI2.o)
                              build/default/production/_ext/1077454706/mpu_spi.o (_OpenSPI2)
/opt/microchip/xc16/v1.10/bin/bin/../../lib/liblega-pic30-elf.a(crt0_standard.o)
                              (__resetPRI)
/opt/microchip/xc16/v1.10/bin/bin/../../lib/liblega-pic30-elf.a(data_init_standard.o)
                              /opt/microchip/xc16/v1.10/bin/bin/../../lib/liblega-pic30-elf.a(crt0_standard.o) (__data_init_standard)
/opt/microchip/xc16/v1.10/bin/bin/../../lib/liblega-pic30-elf.a(delay32.Leo)
                              build/default/production/_ext/1077454706/mpu6000.o (___delay32)
/opt/microchip/xc16/v1.10/bin/bin/../../lib/libm-elf.a(addsf3.eo)
                              build/default/production/_ext/1077471063/estAltitude.o (___subsf3)
/opt/microchip/xc16/v1.10/bin/bin/../../lib/libm-elf.a(divsf3.eo)
                              build/default/production/_ext/1077471063/estAltitude.o (___divsf3)
/opt/microchip/xc16/v1.10/bin/bin/../../lib/libm-elf.a(divsi3.eo)
                              build/default/production/_ext/1077471063/gpsParseCommon.o (___divsi3)
/opt/microchip/xc16/v1.10/bin/bin/../../lib/libm-elf.a(floatsisf.eo)
                              build/default/production/_ext/1077471063/estAltitude.o (___floatsisf)
/opt/microchip/xc16/v1.10/bin/bin/../../lib/libm-elf.a(floatunsisf.eo)
                              build/default/production/_ext/1472/main.o (___floatunsisf)
/opt/microchip/xc16/v1.10/bin/bin/../../lib/libm-elf.a(fpack.eo)
                              /opt/microchip/xc16/v1.10/bin/bin/../../lib/libm-elf.a(addsf3.eo) (__fpack)
/opt/microchip/xc16/v1.10/bin/bin/../../lib/libm-elf.a(funpack2.eo)
                              /opt/microchip/xc16/v1.10/bin/bin/../../lib/libm-elf.a(addsf3.eo) (__funpack2)
/opt/microchip/xc16/v1.10/bin/bin/../../lib/libm-elf.a(futil.eo)
                              /opt/microchip/xc16/v1.10/bin/bin/../../lib/libm-elf.a(addsf3.eo) (__fPropagateNaN)
/opt/microchip/xc16/v1.10/bin/bin/../../lib/libm-elf.a(modsi3.eo)
                              build/default/production/_ext/1077471063/gpsParseCommon.o (___modsi3)
/opt/microchip/xc16/v1.10/bin/bin/../../lib/libm-elf.a(powf.eo)
                              build/default/production/_ext/1077471063/estAltitude.o (_powf)
/opt/microchip/xc16/v1.10/bin/bin/../../lib/libm-elf.a(udivsi3.eo)
                              /opt/microchip/xc16/v1.10/bin/bin/../../lib/libm-elf.a(divsi3.eo) (___udivsi3)
/opt/microchip/xc16/v1.10/bin/bin/../../lib/libm-elf.a(umodsi3.eo)
                              /opt/microchip/xc16/v1.10/bin/bin/../../lib/libm-elf.a(modsi3.eo) (___umodsi3)
/opt/microchip/xc16/v1.10/bin/bin/../../lib/libm-elf.a(divmoddi3.eo)
                              build/default/production/_ext/1077454706/serialIO.o (___divdi3)
/opt/microchip/xc16/v1.10/bin/bin/../../lib/libm-elf.a(_frexpf.eo)
                              /opt/microchip/xc16/v1.10/bin/bin/../../lib/libm-elf.a(powf.eo) (__frexpf)
/opt/microchip/xc16/v1.10/bin/bin/../../lib/libm-elf.a(errno.eo)
                              /opt/microchip/xc16/v1.10/bin/bin/../../lib/libm-elf.a(powf.eo) (_errno)
/opt/microchip/xc16/v1.10/bin/bin/../../lib/libm-elf.a(expf.eo)
                              /opt/microchip/xc16/v1.10/bin/bin/../../lib/libm-elf.a(powf.eo) (_expf)
/opt/microchip/xc16/v1.10/bin/bin/../../lib/libm-elf.a(fchop.eo)
                              /opt/microchip/xc16/v1.10/bin/bin/../../lib/libm-elf.a(powf.eo) (__fchop)
/opt/microchip/xc16/v1.10/bin/bin/../../lib/libm-elf.a(feqltle.eo)
                              /opt/microchip/xc16/v1.10/bin/bin/../../lib/libm-elf.a(powf.eo) (___eqsf2)
/opt/microchip/xc16/v1.10/bin/bin/../../lib/libm-elf.a(fgtge.eo)
                              /opt/microchip/xc16/v1.10/bin/bin/../../lib/libm-elf.a(expf.eo) (___gtsf2)
/opt/microchip/xc16/v1.10/bin/bin/../../lib/libm-elf.a(fixsfsi.eo)
                              /opt/microchip/xc16/v1.10/bin/bin/../../lib/libm-elf.a(powf.eo) (_(float, int, long long, short, float, short, int))
/opt/microchip/xc16/v1.10/bin/bin/../../lib/libm-elf.a(funpack.eo)
                              /opt/microchip/xc16/v1.10/bin/bin/../../lib/libm-elf.a(funpack2.eo) (__funpack)
/opt/microchip/xc16/v1.10/bin/bin/../../lib/libm-elf.a(ldexpf.eo)
                              /opt/microchip/xc16/v1.10/bin/bin/../../lib/libm-elf.a(powf.eo) (_ldexpf)
/opt/microchip/xc16/v1.10/bin/bin/../../lib/libm-elf.a(logf.eo)
                              /opt/microchip/xc16/v1.10/bin/bin/../../lib/libm-elf.a(powf.eo) (_logf)
/opt/microchip/xc16/v1.10/bin/bin/../../lib/libm-elf.a(mulsf3.eo)
                              /opt/microchip/xc16/v1.10/bin/bin/../../lib/libm-elf.a(powf.eo) (___mulsf3)
/opt/microchip/xc16/v1.10/bin/bin/../../lib/libm-elf.a(fcompare.eo)
                              /opt/microchip/xc16/v1.10/bin/bin/../../lib/libm-elf.a(feqltle.eo) (__fcompare)
/opt/microchip/xc16/v1.10/bin/bin/../../lib/liblega-c-elf.a(memcpy.XXeo)
                              build/default/production/_ext/1472/main.o (_memcpy)
/opt/microchip/xc16/v1.10/bin/bin/../../lib/liblega-c-elf.a(strlen.XXeo)
                              build/default/production/_ext/1077471063/gpsParseCommon.o (_strlen)
/opt/microchip/xc16/v1.10/bin/bin/../../lib/liblega-c-elf.a(printf_cdnopuxX.XXeo)
                              build/default/production/_ext/1077454706/mpu6000.o (__printf_cdnopuxX)
/opt/microchip/xc16/v1.10/bin/bin/../../lib/liblega-c-elf.a(xprintf_cdnopuxX.XXeo)
                              /opt/microchip/xc16/v1.10/bin/bin/../../lib/liblega-c-elf.a(printf_cdnopuxX.XXeo) (___Printf_cdnopuxX)
/opt/microchip/xc16/v1.10/bin/bin/../../lib/liblega-c-elf.a(xputfld_cdnopuxX.XXeo)
                              /opt/microchip/xc16/v1.10/bin/bin/../../lib/liblega-c-elf.a(xprintf_cdnopuxX.XXeo) (___Putfld_cdnopuxX)
/opt/microchip/xc16/v1.10/bin/bin/../../lib/liblega-c-elf.a(sprintf_cdfFnopsuxX.XXeo)
                              build/default/production/_ext/1472/main.o (__sprintf_cdfFnopsuxX)
/opt/microchip/xc16/v1.10/bin/bin/../../lib/liblega-c-elf.a(xprintf_cdfFnopsuxX.XXeo)
                              /opt/microchip/xc16/v1.10/bin/bin/../../lib/liblega-c-elf.a(sprintf_cdfFnopsuxX.XXeo) (___Printf_cdfFnopsuxX)
/opt/microchip/xc16/v1.10/bin/bin/../../lib/liblega-c-elf.a(xputfld_cdfFnopsuxX.XXeo)
                              /opt/microchip/xc16/v1.10/bin/bin/../../lib/liblega-c-elf.a(xprintf_cdfFnopsuxX.XXeo) (___Putfld_cdfFnopsuxX)
/opt/microchip/xc16/v1.10/bin/bin/../../lib/liblega-c-elf.a(xldtob_cdfFnopsuxX.XXeo)
                              /opt/microchip/xc16/v1.10/bin/bin/../../lib/liblega-c-elf.a(xputfld_cdfFnopsuxX.XXeo) (___Ldtob_cdfFnopsuxX)
/opt/microchip/xc16/v1.10/bin/bin/../../lib/liblega-c-elf.a(xgenld_cdfFnopsuxX.XXeo)
                              /opt/microchip/xc16/v1.10/bin/bin/../../lib/liblega-c-elf.a(xldtob_cdfFnopsuxX.XXeo) (___Genld_cdfFnopsuxX)
/opt/microchip/xc16/v1.10/bin/bin/../../lib/liblega-c-elf.a(div.XXeo)
                              /opt/microchip/xc16/v1.10/bin/bin/../../lib/liblega-c-elf.a(xgenld_cdfFnopsuxX.XXeo) (_div)
/opt/microchip/xc16/v1.10/bin/bin/../../lib/liblega-c-elf.a(fwrite.XXeo)
                              /opt/microchip/xc16/v1.10/bin/bin/../../lib/liblega-c-elf.a(printf_cdnopuxX.XXeo) (_fwrite)
/opt/microchip/xc16/v1.10/bin/bin/../../lib/liblega-c-elf.a(ldiv.XXeo)
                              /opt/microchip/xc16/v1.10/bin/bin/../../lib/liblega-c-elf.a(xldtob_cdfFnopsuxX.XXeo) (_ldiv)
/opt/microchip/xc16/v1.10/bin/bin/../../lib/liblega-c-elf.a(memchr.XXeo)
                              /opt/microchip/xc16/v1.10/bin/bin/../../lib/liblega-c-elf.a(xputfld_cdfFnopsuxX.XXeo) (_memchr)
/opt/microchip/xc16/v1.10/bin/bin/../../lib/liblega-c-elf.a(strchr.XXeo)
                              /opt/microchip/xc16/v1.10/bin/bin/../../lib/liblega-c-elf.a(xprintf_cdnopuxX.XXeo) (_strchr)
/opt/microchip/xc16/v1.10/bin/bin/../../lib/liblega-c-elf.a(xfiles.XXeo)
                              /opt/microchip/xc16/v1.10/bin/bin/../../lib/liblega-c-elf.a(printf_cdnopuxX.XXeo) (__Stdout)
/opt/microchip/xc16/v1.10/bin/bin/../../lib/liblega-c-elf.a(xfwprep.XXeo)
                              /opt/microchip/xc16/v1.10/bin/bin/../../lib/liblega-c-elf.a(fwrite.XXeo) (__Fwprep)
/opt/microchip/xc16/v1.10/bin/bin/../../lib/liblega-c-elf.a(xldunsca.XXeo)
                              /opt/microchip/xc16/v1.10/bin/bin/../../lib/liblega-c-elf.a(xldtob_cdfFnopsuxX.XXeo) (__LDunscale)
/opt/microchip/xc16/v1.10/bin/bin/../../lib/liblega-c-elf.a(xlitob.XXeo)
                              /opt/microchip/xc16/v1.10/bin/bin/../../lib/liblega-c-elf.a(xputfld_cdnopuxX.XXeo) (__Litob)
/opt/microchip/xc16/v1.10/bin/bin/../../lib/liblega-c-elf.a(xputtxt.XXeo)
                              /opt/microchip/xc16/v1.10/bin/bin/../../lib/liblega-c-elf.a(xprintf_cdnopuxX.XXeo) (__Puttxt)
/opt/microchip/xc16/v1.10/bin/bin/../../lib/liblega-c-elf.a(xvacopy.XXeo)
                              /opt/microchip/xc16/v1.10/bin/bin/../../lib/liblega-c-elf.a(xprintf_cdnopuxX.XXeo) (__Vacopy)
/opt/microchip/xc16/v1.10/bin/bin/../../lib/liblega-c-elf.a(fclose.XXelo)
                              /opt/microchip/xc16/v1.10/bin/bin/../../lib/liblega-c-elf.a(xfwprep.XXeo) (__Closreg)
/opt/microchip/xc16/v1.10/bin/bin/../../lib/liblega-c-elf.a(fflush.XXelo)
                              /opt/microchip/xc16/v1.10/bin/bin/../../lib/liblega-c-elf.a(fwrite.XXeo) (__DNKfflush)
/opt/microchip/xc16/v1.10/bin/bin/../../lib/liblega-c-elf.a(xatexit.XXelo)
                              /opt/microchip/xc16/v1.10/bin/bin/../../lib/liblega-c-elf.a(fclose.XXelo) (__Atexit)
/opt/microchip/xc16/v1.10/bin/bin/../../lib/liblega-c-elf.a(xdnorm.XXelo)
                              /opt/microchip/xc16/v1.10/bin/bin/../../lib/liblega-c-elf.a(xldunsca.XXeo) (__Dnorm)
/opt/microchip/xc16/v1.10/bin/bin/../../lib/liblega-c-elf.a(free.XXeo)
                              /opt/microchip/xc16/v1.10/bin/bin/../../lib/liblega-c-elf.a(fclose.XXelo) (_free)
/opt/microchip/xc16/v1.10/bin/bin/../../lib/liblega-c-elf.a(malloc.XXeo)
                              /opt/microchip/xc16/v1.10/bin/bin/../../lib/liblega-c-elf.a(free.XXeo) (__Aldata)
/opt/microchip/xc16/v1.10/bin/bin/../../lib/liblega-c-elf.a(xgetmem.XXeo)
                              /opt/microchip/xc16/v1.10/bin/bin/../../lib/liblega-c-elf.a(malloc.XXeo) (__Getmem)
/opt/microchip/xc16/v1.10/bin/bin/../../lib/liblega-pic30-elf.a(close.Leo)
                              /opt/microchip/xc16/v1.10/bin/bin/../../lib/liblega-c-elf.a(fclose.XXelo) (_close)
/opt/microchip/xc16/v1.10/bin/bin/../../lib/liblega-pic30-elf.a(write.Leo)
                              /opt/microchip/xc16/v1.10/bin/bin/../../lib/liblega-c-elf.a(fflush.XXelo) (_write)
/opt/microchip/xc16/v1.10/bin/bin/../../lib/liblega-pic30-elf.a(remove.Leo)
                              /opt/microchip/xc16/v1.10/bin/bin/../../lib/liblega-c-elf.a(fclose.XXelo) (_remove)
/opt/microchip/xc16/v1.10/bin/bin/../../lib/liblega-pic30-elf.a(sbrk.Leo)
                              /opt/microchip/xc16/v1.10/bin/bin/../../lib/liblega-c-elf.a(xgetmem.XXeo) (_sbrk)
/opt/microchip/xc16/v1.10/bin/bin/../../lib/liblega-pic30-elf.a(c30_uart.Leo)
                              /opt/microchip/xc16/v1.10/bin/bin/../../lib/liblega-pic30-elf.a(write.Leo) (___C30_UART)
/opt/microchip/xc16/v1.10/bin/bin/../../lib/liblega-pic30-elf.a(brk.Lelo)
                              /opt/microchip/xc16/v1.10/bin/bin/../../lib/liblega-pic30-elf.a(sbrk.Leo) (_brk)
/opt/microchip/xc16/v1.10/bin/bin/../../lib/libm-elf.a(deqltle.eo)
                              /opt/microchip/xc16/v1.10/bin/bin/../../lib/liblega-c-elf.a(xldtob_cdfFnopsuxX.XXeo) (___ltdf2)
/opt/microchip/xc16/v1.10/bin/bin/../../lib/libm-elf.a(dgtge.eo)
                              /opt/microchip/xc16/v1.10/bin/bin/../../lib/liblega-c-elf.a(xldtob_cdfFnopsuxX.XXeo) (___gtdf2)
/opt/microchip/xc16/v1.10/bin/bin/../../lib/libm-elf.a(divdf3.eo)
                              /opt/microchip/xc16/v1.10/bin/bin/../../lib/liblega-c-elf.a(xldtob_cdfFnopsuxX.XXeo) (___divdf3)
/opt/microchip/xc16/v1.10/bin/bin/../../lib/libm-elf.a(dpack.eo)
                              /opt/microchip/xc16/v1.10/bin/bin/../../lib/libm-elf.a(divdf3.eo) (__dpack)
/opt/microchip/xc16/v1.10/bin/bin/../../lib/libm-elf.a(dunpack2.eo)
                              /opt/microchip/xc16/v1.10/bin/bin/../../lib/libm-elf.a(divdf3.eo) (__dunpack2)
/opt/microchip/xc16/v1.10/bin/bin/../../lib/libm-elf.a(extendsfdf.eo)
                              /opt/microchip/xc16/v1.10/bin/bin/../../lib/liblega-c-elf.a(xputfld_cdfFnopsuxX.XXeo) (___extendsfdf2)
/opt/microchip/xc16/v1.10/bin/bin/../../lib/libm-elf.a(fixdfsi.eo)
                              /opt/microchip/xc16/v1.10/bin/bin/../../lib/liblega-c-elf.a(xldtob_cdfFnopsuxX.XXeo) (_(float, int, long long, double, float, short, int))
/opt/microchip/xc16/v1.10/bin/bin/../../lib/libm-elf.a(floatsidf.eo)
                              /opt/microchip/xc16/v1.10/bin/bin/../../lib/liblega-c-elf.a(xldtob_cdfFnopsuxX.XXeo) (___floatsidf)
/opt/microchip/xc16/v1.10/bin/bin/../../lib/libm-elf.a(muldf3.eo)
                              /opt/microchip/xc16/v1.10/bin/bin/../../lib/liblega-c-elf.a(xldtob_cdfFnopsuxX.XXeo) (___muldf3)
/opt/microchip/xc16/v1.10/bin/bin/../../lib/libm-elf.a(subdf3.eo)
                              /opt/microchip/xc16/v1.10/bin/bin/../../lib/liblega-c-elf.a(xldtob_cdfFnopsuxX.XXeo) (___subdf3)
/opt/microchip/xc16/v1.10/bin/bin/../../lib/libm-elf.a(mulsi3.eo)
                              /opt/microchip/xc16/v1.10/bin/bin/../../lib/liblega-c-elf.a(xldtob_cdfFnopsuxX.XXeo) (___mulsi3)
/opt/microchip/xc16/v1.10/bin/bin/../../lib/libm-elf.a(adddf3.eo)
                              /opt/microchip/xc16/v1.10/bin/bin/../../lib/libm-elf.a(subdf3.eo) (___adddf3)
/opt/microchip/xc16/v1.10/bin/bin/../../lib/libm-elf.a(dcompare.eo)
                              /opt/microchip/xc16/v1.10/bin/bin/../../lib/libm-elf.a(deqltle.eo) (__dcompare)
/opt/microchip/xc16/v1.10/bin/bin/../../lib/libm-elf.a(dpropagateNaN.eo)
                              /opt/microchip/xc16/v1.10/bin/bin/../../lib/libm-elf.a(dunpack2.eo) (__dPropagateNaN)
/opt/microchip/xc16/v1.10/bin/bin/../../lib/libm-elf.a(dtype.eo)
                              /opt/microchip/xc16/v1.10/bin/bin/../../lib/libm-elf.a(dcompare.eo) (__dtype)
/opt/microchip/xc16/v1.10/bin/bin/../../lib/libm-elf.a(dunpack.eo)
                              /opt/microchip/xc16/v1.10/bin/bin/../../lib/libm-elf.a(dunpack2.eo) (__dunpack)
/opt/microchip/xc16/v1.10/bin/bin/../../lib/libm-elf.a(floatdidf.eo)
                              /opt/microchip/xc16/v1.10/bin/bin/../../lib/libm-elf.a(floatsidf.eo) (___floatdidf)


Selected CodeGuard Options:
  FGS:GWRP:OFF
  FGS:GSS:OFF

CodeGuard FLASH Memory:
  boot    (none)
  secure  (none)
  general 0x200 to 0x2abfc

CodeGuard RAM Memory:
  general 0x800 to 0x7fff
  secure  (none)
  boot    (none)


Program Memory  [Origin = 0x200, Length = 0x2a9fe]

section                    address   length (PC units)   length (bytes) (dec)
-------                    -------   -----------------   --------------------
.text                        0x200              0x279e          0x3b6d  (15213)
.const                      0x299e               0x4d4           0x73e  (1854)
.text                       0x2e72              0x1d8e          0x2c55  (11349)
.dinit                      0x4c00               0x2e8           0x45c  (1116)
.text                       0x4ee8              0x1894          0x24de  (9438)
.init.delay32               0x677c                0x1c            0x2a  (42)
.text                       0x6798                 0xc            0x12  (18)

                     Total program memory used (bytes):         0x9876  (39030) 14%


Data Memory  [Origin = 0x800, Length = 0x7800]

section                    address      alignment gaps    total length  (dec)
-------                    -------      --------------    -------------------
.nbss                        0x800                   0           0x21a  (538)
.ndata                       0xa1a                   0            0xc2  (194)
.nbss                        0xadc                   0            0xac  (172)
.ndata                       0xb88                   0            0x50  (80)
.nbss                        0xbd8                   0            0x48  (72)
.ndata                       0xc20                   0            0x38  (56)
.nbss                        0xc58                   0            0x2c  (44)
.ndata                       0xc84                   0            0x38  (56)
.nbss                        0xcbc                   0            0x7a  (122)
.ndata                       0xd36                   0            0x14  (20)
_0xf6f12f18649e193d          0xd4a                   0             0x4  (4)
.ndata                       0xd4e                   0             0x4  (4)
.nbss                        0xd52                   0             0x4  (4)
.ndata                       0xd56                   0             0x6  (6)
_0xf6f12ebc649e193d          0xd5c                   0             0x2  (2)
_0xf6f12f74649e193d          0xd5e                   0             0x2  (2)
.ndata                       0xd60                   0             0x2  (2)
.nbss                        0xd62                   0             0x2  (2)
.data._Stdin                 0xd64                   0            0x88  (136)
.data                        0xdec                   0            0x58  (88)
.data.udigs                  0xe44                   0            0x22  (34)
.data                        0xe66                   0            0x1a  (26)
.heap                        0xe80                   0           0x100  (256)
_0xf7007284649e193d         0x7fc0                   0             0xc  (12)
.bss                        0x7fcc                   0             0x6  (6)
.data._Aldata               0x7fd2                   0             0x6  (6)
.data                       0x7fd8                   0             0x2  (2)
.bss                        0x7fda                   0             0x2  (2)
.data.__C30_UART            0x7fdc                   0             0x2  (2)
.bss                        0x7fde                   0             0x2  (2)
_0xf7007228649e193d         0x7fe0                   0             0xc  (12)

                        Total data memory used (bytes):          0x7ac  (1964) 6%


Dynamic Memory Usage

region                     address                      maximum length  (dec)
------                     -------                      ---------------------
heap                         0xe80                               0x100  (256)
stack                        0xf80                              0x7040  (28736)

                        Maximum dynamic memory (bytes):         0x7140  (28992)


External Symbols in Data Memory (by address):

                    0x0800                  _debug_buffer
                    0x0a00                  _delta_roll
                    0x0a02                  _roll_deviation
                    0x0a04                  _roll_reference
                    0x0a08                  _roll_angle
                    0x0a0a                  _offsetX
                    0x0a0c                  _offsetY
                    0x0a0e                  _offsetZ
                    0x0a10                  _tilt_x
                    0x0a12                  _tilt_y
                    0x0a14                  _tilt_t
                    0x0a16                  _accelOn
                    0x0a1a                  _db_index
                    0x0a1c                  _roll_angle_32
                    0x0a20                  _apogee
                    0x0a22                  _tilted
                    0x0a24                  _tenths
                    0x0a26                  _seconds
                    0x0a28                  _minutes
                    0x0a2a                  _tilt_defs
                    0x0aac                  _NUM_TILTS
                    0x0aae                  _tilt_index
                    0x0ab0                  _tilt_print_index
                    0x0ab2                  _controlModeYawPitch
                    0x0ab4                  _controlModeRoll
                    0x0ab6                  _launched
                    0x0ab8                  _accelEarthVertical
                    0x0aba                  _velocityEarthVertical
                    0x0abe                  _launch_count
                    0x0ac0                  _roll_feedback_vertical_pitch
                    0x0ac2                  _roll_feedback_vertical_yaw
                    0x0ac4                  _total_roll_feedback_vertical
                    0x0ac6                  _pitch_feedback_vertical
                    0x0ac8                  _yaw_feedback_vertical
                    0x0aca                  _roll_feedback_horizontal_pitch
                    0x0acc                  _roll_feedback_horizontal_yaw
                    0x0ace                  _total_roll_feedback_horizontal
                    0x0ad0                  _pitch_feedback_horizontal
                    0x0ad2                  _yaw_feedback_horizontal
                    0x0ad4                  _tilt_count
                    0x0ad6                  _t_start
                    0x0ad8                  _t_end
                    0x0ada                  _line_number
                    0x0adc                  _mpu_data
                    0x0aec                  _udb_xaccel
                    0x0af6                  _udb_yaccel
                    0x0b00                  _udb_zaccel
                    0x0b0a                  _udb_xrate
                    0x0b14                  _udb_yrate
                    0x0b1e                  _udb_zrate
                    0x0b28                  _mpu_temp
                    0x0b32                  _vref_adj
                    0x0b34                  _lat_origin
                    0x0b38                  _lon_origin
                    0x0b3c                  _alt_origin
                    0x0b40                  _lat_gps
                    0x0b44                  _lon_gps
                    0x0b48                  _alt_sl_gps
                    0x0b4c                  _week_no
                    0x0b4e                  _sog_gps
                    0x0b50                  _cog_gps
                    0x0b52                  _climb_gps
                    0x0b54                  _hilsim_airspeed
                    0x0b56                  _tow
                    0x0b5a                  _hdop
                    0x0b5b                  _svs
                    0x0b5c                  _gps_data_age
                    0x0b5e                  _lat_gps_
                    0x0b62                  _lon_gps_
                    0x0b66                  _alt_sl_gps_
                    0x0b6a                  _tow_
                    0x0b6e                  _hdop_
                    0x0b70                  _actual_dir
                    0x0b71                  _calculated_heading
                    0x0b7e                  _date_gps_
                    0x0b82                  _time_gps_
                    0x0b88                  _ggain
                    0x0b8e                  _spin_rate
                    0x0b90                  _rmat
                    0x0ba2                  _omegagyro
                    0x0ba8                  _omega
                    0x0bae                  _omegacorrI
                    0x0bb4                  _accelEarth
                    0x0bba                  _omegaAccum
                    0x0bc0                  _gplane
                    0x0bc6                  _aero_force
                    0x0bcc                  _dirOverGndHGPS
                    0x0bd2                  _dirOverGndHrmat
                    0x0bd8                  _udb_analogInputs
                    0x0c00                  _udb_vcc
                    0x0c0a                  _udb_5v
                    0x0c14                  _udb_vref
                    0x0c1e                  _sample_count
                    0x0c20                  _dead_reckon_clock
                    0x0c22                  _IMUvelocityx
                    0x0c26                  _IMUvelocityy
                    0x0c2a                  _IMUvelocityz
                    0x0c2e                  _forward_ground_speed
                    0x0c30                  _IMUlocationx
                    0x0c34                  _IMUlocationy
                    0x0c38                  _IMUlocationz
                    0x0c3c                  _IMUintegralAccelerationx
                    0x0c40                  _IMUintegralAccelerationy
                    0x0c44                  _IMUintegralAccelerationz
                    0x0c48                  _air_speed_3DIMU
                    0x0c4a                  _total_energy
                    0x0c4c                  _locationErrorEarth
                    0x0c52                  _velocityErrorEarth
                    0x0c7e                  _theta
                    0x0c84                  _GPSlocation
                    0x0c8a                  _GPSvelocity
                    0x0c90                  _cos_lat
                    0x0c92                  _gps_out_buffer
                    0x0c94                  _gps_out_buffer_length
                    0x0c96                  _gps_out_index
                    0x0c98                  _ground_velocity_magnitudeXY
                    0x0c9a                  _forward_acceleration
                    0x0c9c                  _air_speed_magnitudeXY
                    0x0c9e                  _air_speed_3DGPS
                    0x0ca2                  _udb_magOffset
                    0x0ca8                  _udb_staticMagOffset
                    0x0cae                  _magGain
                    0x0cb4                  _rawMagCalib
                    0x0cba                  _magMessage
                    0x0cbc                  _udb_pwIn
                    0x0cbe                  _udb_pwTrim
                    0x0cd2                  _payloadlength
                    0x0cd4                  _un
                    0x0cd5                  _svs_
                    0x0cd6                  _nav_valid_
                    0x0cd8                  _nav_type_
                    0x0cda                  _sog_gps_
                    0x0cdc                  _climb_gps_
                    0x0cde                  _week_no_
                    0x0ce0                  _cog_gps_
                    0x0ce2                  _checksum_
                    0x0ce4                  _calculated_checksum
                    0x0ce6                  _udb_pwOut
                    0x0cfa                  _barometer_altitude
                    0x0cfe                  _barometer_agl_altitude
                    0x0d02                  _barometer_pressure
                    0x0d06                  _barometer_temperature
                    0x0d08                  _sea_level_pressure
                    0x0d18                  _udb_magFieldBody
                    0x0d1e                  _magFieldRaw
                    0x0d36                  _estimatedWind
                    0x0d3c                  _barometer_pressure_gnd
                    0x0d40                  _barometer_temperature_gnd
                    0x0d42                  _msg_parse
                    0x0d44                  _store_index
                    0x0d46                  _mpuCnt
                    0x0d48                  _mpuDAV
                    0x0d4a                  _trap_source
                    0x0d4e                  _one_hertz_flag
                    0x0d50                  _udb_heartbeat_counter
                    0x0d52                  _dcm_flags
                    0x0d54                  _udb_flags
                    0x0d56                  _DmaBuffer
                    0x0d5a                  _defaultCorcon
                    0x0d5c                  _trap_flags
                    0x0d5e                  _osc_fail_count
                    0x0d64                  __Stdin
                    0x0d8c                  __Stdout
                    0x0db4                  __Stderr
                    0x0ddc                  __Files
                    0x7fc0                  _BufferB
                    0x7fcc                  _JmpStckPtr
                    0x7fce                  _JmpAddrLow
                    0x7fd0                  _JmpAddrHgh
                    0x7fd2                  __Aldata
                    0x7fd6                  __Size_block
                    0x7fdc                  ___C30_UART
                    0x7fde                  ___curbrk
                    0x7fe0                  _BufferA

External Symbols in Data Memory (by name):

                    0x7fe0                  _BufferA
                    0x7fc0                  _BufferB
                    0x0d56                  _DmaBuffer
                    0x0c84                  _GPSlocation
                    0x0c8a                  _GPSvelocity
                    0x0c3c                  _IMUintegralAccelerationx
                    0x0c40                  _IMUintegralAccelerationy
                    0x0c44                  _IMUintegralAccelerationz
                    0x0c30                  _IMUlocationx
                    0x0c34                  _IMUlocationy
                    0x0c38                  _IMUlocationz
                    0x0c22                  _IMUvelocityx
                    0x0c26                  _IMUvelocityy
                    0x0c2a                  _IMUvelocityz
                    0x7fd0                  _JmpAddrHgh
                    0x7fce                  _JmpAddrLow
                    0x7fcc                  _JmpStckPtr
                    0x0aac                  _NUM_TILTS
                    0x7fd2                  __Aldata
                    0x0ddc                  __Files
                    0x7fd6                  __Size_block
                    0x0db4                  __Stderr
                    0x0d64                  __Stdin
                    0x0d8c                  __Stdout
                    0x7fdc                  ___C30_UART
                    0x7fde                  ___curbrk
                    0x0bb4                  _accelEarth
                    0x0ab8                  _accelEarthVertical
                    0x0a16                  _accelOn
                    0x0b70                  _actual_dir
                    0x0bc6                  _aero_force
                    0x0c9e                  _air_speed_3DGPS
                    0x0c48                  _air_speed_3DIMU
                    0x0c9c                  _air_speed_magnitudeXY
                    0x0b3c                  _alt_origin
                    0x0b48                  _alt_sl_gps
                    0x0b66                  _alt_sl_gps_
                    0x0a20                  _apogee
                    0x0cfe                  _barometer_agl_altitude
                    0x0cfa                  _barometer_altitude
                    0x0d02                  _barometer_pressure
                    0x0d3c                  _barometer_pressure_gnd
                    0x0d06                  _barometer_temperature
                    0x0d40                  _barometer_temperature_gnd
                    0x0ce4                  _calculated_checksum
                    0x0b71                  _calculated_heading
                    0x0ce2                  _checksum_
                    0x0b52                  _climb_gps
                    0x0cdc                  _climb_gps_
                    0x0b50                  _cog_gps
                    0x0ce0                  _cog_gps_
                    0x0ab4                  _controlModeRoll
                    0x0ab2                  _controlModeYawPitch
                    0x0c90                  _cos_lat
                    0x0b7e                  _date_gps_
                    0x0a1a                  _db_index
                    0x0d52                  _dcm_flags
                    0x0c20                  _dead_reckon_clock
                    0x0800                  _debug_buffer
                    0x0d5a                  _defaultCorcon
                    0x0a00                  _delta_roll
                    0x0bcc                  _dirOverGndHGPS
                    0x0bd2                  _dirOverGndHrmat
                    0x0d36                  _estimatedWind
                    0x0c9a                  _forward_acceleration
                    0x0c2e                  _forward_ground_speed
                    0x0b88                  _ggain
                    0x0bc0                  _gplane
                    0x0b5c                  _gps_data_age
                    0x0c92                  _gps_out_buffer
                    0x0c94                  _gps_out_buffer_length
                    0x0c96                  _gps_out_index
                    0x0c98                  _ground_velocity_magnitudeXY
                    0x0b5a                  _hdop
                    0x0b6e                  _hdop_
                    0x0b54                  _hilsim_airspeed
                    0x0b40                  _lat_gps
                    0x0b5e                  _lat_gps_
                    0x0b34                  _lat_origin
                    0x0abe                  _launch_count
                    0x0ab6                  _launched
                    0x0ada                  _line_number
                    0x0c4c                  _locationErrorEarth
                    0x0b44                  _lon_gps
                    0x0b62                  _lon_gps_
                    0x0b38                  _lon_origin
                    0x0d1e                  _magFieldRaw
                    0x0cae                  _magGain
                    0x0cba                  _magMessage
                    0x0a28                  _minutes
                    0x0d46                  _mpuCnt
                    0x0d48                  _mpuDAV
                    0x0adc                  _mpu_data
                    0x0b28                  _mpu_temp
                    0x0d42                  _msg_parse
                    0x0cd8                  _nav_type_
                    0x0cd6                  _nav_valid_
                    0x0a0a                  _offsetX
                    0x0a0c                  _offsetY
                    0x0a0e                  _offsetZ
                    0x0ba8                  _omega
                    0x0bba                  _omegaAccum
                    0x0bae                  _omegacorrI
                    0x0ba2                  _omegagyro
                    0x0d4e                  _one_hertz_flag
                    0x0d5e                  _osc_fail_count
                    0x0cd2                  _payloadlength
                    0x0ad0                  _pitch_feedback_horizontal
                    0x0ac6                  _pitch_feedback_vertical
                    0x0cb4                  _rawMagCalib
                    0x0b90                  _rmat
                    0x0a08                  _roll_angle
                    0x0a1c                  _roll_angle_32
                    0x0a02                  _roll_deviation
                    0x0aca                  _roll_feedback_horizontal_pitch
                    0x0acc                  _roll_feedback_horizontal_yaw
                    0x0ac0                  _roll_feedback_vertical_pitch
                    0x0ac2                  _roll_feedback_vertical_yaw
                    0x0a04                  _roll_reference
                    0x0c1e                  _sample_count
                    0x0d08                  _sea_level_pressure
                    0x0a26                  _seconds
                    0x0b4e                  _sog_gps
                    0x0cda                  _sog_gps_
                    0x0b8e                  _spin_rate
                    0x0d44                  _store_index
                    0x0b5b                  _svs
                    0x0cd5                  _svs_
                    0x0ad8                  _t_end
                    0x0ad6                  _t_start
                    0x0a24                  _tenths
                    0x0c7e                  _theta
                    0x0ad4                  _tilt_count
                    0x0a2a                  _tilt_defs
                    0x0aae                  _tilt_index
                    0x0ab0                  _tilt_print_index
                    0x0a14                  _tilt_t
                    0x0a10                  _tilt_x
                    0x0a12                  _tilt_y
                    0x0a22                  _tilted
                    0x0b82                  _time_gps_
                    0x0c4a                  _total_energy
                    0x0ace                  _total_roll_feedback_horizontal
                    0x0ac4                  _total_roll_feedback_vertical
                    0x0b56                  _tow
                    0x0b6a                  _tow_
                    0x0d5c                  _trap_flags
                    0x0d4a                  _trap_source
                    0x0c0a                  _udb_5v
                    0x0bd8                  _udb_analogInputs
                    0x0d54                  _udb_flags
                    0x0d50                  _udb_heartbeat_counter
                    0x0d18                  _udb_magFieldBody
                    0x0ca2                  _udb_magOffset
                    0x0cbc                  _udb_pwIn
                    0x0ce6                  _udb_pwOut
                    0x0cbe                  _udb_pwTrim
                    0x0ca8                  _udb_staticMagOffset
                    0x0c00                  _udb_vcc
                    0x0c14                  _udb_vref
                    0x0aec                  _udb_xaccel
                    0x0b0a                  _udb_xrate
                    0x0af6                  _udb_yaccel
                    0x0b14                  _udb_yrate
                    0x0b00                  _udb_zaccel
                    0x0b1e                  _udb_zrate
                    0x0cd4                  _un
                    0x0aba                  _velocityEarthVertical
                    0x0c52                  _velocityErrorEarth
                    0x0b32                  _vref_adj
                    0x0b4c                  _week_no
                    0x0cde                  _week_no_
                    0x0ad2                  _yaw_feedback_horizontal
                    0x0ac8                  _yaw_feedback_vertical

External Symbols in Program Memory (by address):

                  0x000200                  __resetPRI
                  0x000222                  __psv_init
                  0x000232                  __data_init
                  0x000232                  __data_init_standard
                  0x0002d0                  __DefaultInterrupt
                  0x0002d4                  printf_cdnopuxX.XXeo:_prout
                  0x0002f0                  __printf_cdnopuxX
                  0x000300                  sprintf_cdfFnopsuxX.XXeo:_prout
                  0x00030e                  __sprintf_cdfFnopsuxX
                  0x00032c                  ___Printf_cdfFnopsuxX
                  0x00032c                  ___Printf_cdnopuxX
                  0x00049e                  ___Putfld_cdnopuxX
                  0x00049e                  ___Putfld_cdfFnopsuxX
                  0x000786                  ___Ldtob_cdfFnopsuxX
                  0x0009fa                  ___Genld_cdfFnopsuxX
                  0x000c02                  _FindFirstBitChangeFromLeft
                  0x000c06                  _FindFirstBitFromLeft
                  0x000c0a                  _MatrixAdd
                  0x000c4a                  _MatrixMultiply
                  0x000cc4                  _MatrixScale
                  0x000d00                  _MatrixSubtract
                  0x000d4e                  _MatrixTranspose
                  0x000d96                  _VectorAdd
                  0x000dd4                  _VectorConvolve
                  0x000ecc                  _VectorCopy
                  0x000edc                  _VectorCorrelate
                  0x000f0c                  _VectorDotProduct
                  0x000f46                  _VectorMax
                  0x000f60                  _VectorMin
                  0x000f7a                  _VectorMultiply
                  0x000fb6                  _VectorNegate
                  0x000ff6                  _VectorPower
                  0x00102e                  _VectorScale
                  0x00106a                  _VectorSubtract
                  0x0010b6                  _VectorZeroPad
                  0x0010d4                  _CloseSPI2
                  0x0010dc                  _ConfigIntSPI2
                  0x0010fe                  _OpenSPI2
                  0x001106                  ___subsf3
                  0x001108                  ___addsf3
                  0x0011c2                  ___divsf3
                  0x001246                  ___divsi3
                  0x001264                  ___floatsisf
                  0x001280                  ___floatunsisf
                  0x0012c0                  __fpack
                  0x00130c                  __funpack2
                  0x00131c                  __fPropagateNaN
                  0x00132e                  __fbopExit
                  0x001336                  __fbopReturnNaN
                  0x00133c                  ___modsi3
                  0x00135a                  _powf
                  0x001520                  ___udivsi3
                  0x001540                  ___umodsi3
                  0x00159e                  ___udivmoddi3
                  0x001662                  ___udivdi3
                  0x001670                  ___umoddi3
                  0x001678                  ___divdi3
                  0x0016de                  ___moddi3
                  0x00173a                  __frexpf
                  0x001754                  _expf
                  0x001818                  __fchop
                  0x001866                  ___lesf2
                  0x001866                  ___eqsf2
                  0x001866                  ___ltsf2
                  0x00186a                  ___gtsf2
                  0x00186a                  ___gesf2
                  0x00186e                  ___fixsfsi
                  0x0018b0                  __funpack
                  0x0018da                  _ldexpf
                  0x00191e                  _logf
                  0x0019cc                  ___mulsf3
                  0x001a34                  __fcompare
                  0x001a6a                  _memcpy
                  0x001a78                  _strlen
                  0x001a88                  _div
                  0x001a9e                  _fwrite
                  0x001b46                  _ldiv
                  0x001b70                  _memchr
                  0x001b82                  _strchr
                  0x001b94                  __Fwprep
                  0x001c22                  __LDunscale
                  0x001c76                  __Litob
                  0x001f02                  __Puttxt
                  0x00207a                  __Vacopy
                  0x002084                  __Closreg
                  0x002098                  _fclose
                  0x002120                  fclose.XXelo:_closeall
                  0x002138                  __DNKfflush
                  0x0021b6                  __Atexit
                  0x0021d2                  __Dnorm
                  0x00226c                  _free
                  0x002334                  _malloc
                  0x002388                  __Getmem
                  0x00246e                  ___ledf2
                  0x00246e                  ___eqdf2
                  0x00246e                  ___ltdf2
                  0x002478                  ___gedf2
                  0x002478                  ___gtdf2
                  0x002482                  ___divdf3
                  0x002536                  __dpack
                  0x00258e                  __dunpack2
                  0x0025b0                  __dreturnNaN
                  0x0025b6                  __dunpack2exit
                  0x0025c0                  ___extendsfdf2
                  0x0025fe                  ___fixdfsi
                  0x002656                  ___floatsidf
                  0x00265c                  ___muldf3
                  0x002746                  ___subdf3
                  0x00274a                  ___mulp32eds3
                  0x00274a                  ___mulp32peds3
                  0x00274a                  ___mulsi3
                  0x002756                  ___adddf3
                  0x002850                  __dcompare
                  0x0028a2                  __dPropagateNaN
                  0x0028be                  __dtype
                  0x0028e2                  __dunpack
                  0x002930                  ___floatdidf
                  0x002cd0                  _bin_mode
                  0x002cec                  _mode
                  0x002cf6                  _mode_length
                  0x002cf8                  _msg41parse
                  0x002db0                  _sintab
                  0x002e66                  _days_in_month
                  0x002e72                  _main
                  0x002e94                  _init_events
                  0x002e9a                  _udb_heartbeat_40hz_callback
                  0x002eda                  _dcm_callback_gps_location_updated
                  0x002efc                  _saturate
                  0x002f28                  _saturate_32
                  0x002f6c                  _remove_offset
                  0x002f8c                  _tilt_feedback
                  0x002fb4                  _roll_feedback
                  0x00309e                  _dcm_heartbeat_callback
                  0x0033a0                  _send_debug_line
                  0x003708                  _udb_serial_callback_get_byte_to_send
                  0x00372a                  _udb_serial_callback_received_byte
                  0x003732                  _udb_callback_radio_did_turn_off
                  0x003738                  _osd_init
                  0x00373e                  _sine
                  0x00379a                  _arcsine
                  0x00383a                  _cosine
                  0x003848                  _rotate_2D_vector_by_vector
                  0x0038b6                  _rotate_2D_long_vector_by_vector
                  0x003914                  _rotate_2D_vector_by_angle
                  0x003930                  _rotate_2D
                  0x00399a                  _rect_to_polar
                  0x003a4e                  _rect_to_polar16
                  0x003b28                  _sqrt_int
                  0x003b92                  _sqrt_long
                  0x003c34                  _vector2_mag
                  0x003c54                  _vector3_mag
                  0x003c80                  _vector2_normalize
                  0x003ce2                  _vector3_normalize
                  0x003d6c                  _long_scale
                  0x003dfa                  _find_first_bit_int16
                  0x003e22                  _find_first_bit_int32
                  0x003e74                  _VectorCross
                  0x003f24                  _yaw_drift_reset
                  0x003f36                  _dcm_init_rmat
                  0x003f72                  _read_accel
                  0x003fda                  _udb_callback_read_sensors
                  0x004442                  _dcm_run_imu_step
                  0x004456                  _get_gps_date
                  0x004460                  _get_gps_time
                  0x00446a                  _gps_init
                  0x004472                  _gpsoutbin
                  0x00448e                  _gpsoutline
                  0x0044a4                  _udb_gps_callback_get_byte_to_send
                  0x0044d0                  _udb_gps_callback_received_byte
                  0x0044de                  _gps_nav_capable_check_set
                  0x004510                  _gps_parse_common
                  0x00451a                  build/default/production/_ext/1077471063/gpsParseCommon.o:_udb_background_callback_triggered
                  0x00470a                  _calculate_week_num
                  0x0047fe                  _calculate_time_of_week
                  0x0048e8                  _udb_servo_record_trims
                  0x004910                  _udb_init_capture
                  0x004956                  _radioIn_failsafe_check
                  0x004982                  _radioIn_failsafe_reset
                  0x0049d0                  __IC1Interrupt
                  0x004a20                  __IC2Interrupt
                  0x004a70                  __IC3Interrupt
                  0x004ac0                  __IC4Interrupt
                  0x004b10                  __IC5Interrupt
                  0x004b60                  __IC6Interrupt
                  0x004bb0                  __IC7Interrupt
                  0x004ee8                  _dead_reckon
                  0x00517a                  _estimateWind
                  0x0053f0                  _udb_init_GPS
                  0x005450                  _udb_gps_set_rate
                  0x005478                  _udb_gps_check_rate
                  0x0054a8                  _udb_gps_start_sending_data
                  0x0054b0                  __U1TXInterrupt
                  0x0054e8                  __U1RXInterrupt
                  0x005522                  _udb_init_USART
                  0x005584                  _udb_serial_set_rate
                  0x0055ac                  _udb_serial_check_rate
                  0x0055dc                  _udb_serial_start_sending_data
                  0x0055e4                  __U2TXInterrupt
                  0x00561c                  __U2RXInterrupt
                  0x005656                  _udb_init_ADC
                  0x005724                  __DMA0Interrupt
                  0x005884                  _dcm_init
                  0x005892                  _dcm_align_tilt
                  0x005912                  _dcm_run_init_step
                  0x005940                  _udb_heartbeat_callback
                  0x005962                  _dcm_calibrate
                  0x005974                  _dcm_set_origin_location
                  0x0059b2                  _dcm_absolute_to_relative
                  0x005a0e                  _dcm_rel2abs
                  0x005a94                  _udb_eeprom_init
                  0x005b92                  _eeprom_ByteWrite
                  0x005bb8                  _eeprom_PageWrite
                  0x005bf8                  _eeprom_ByteRead
                  0x005c2a                  _eeprom_SequentialRead
                  0x005c88                  _udb_init_pwm
                  0x005cd0                  _udb_set_action_state
                  0x005cec                  _start_pwm_outputs
                  0x005d02                  __T4Interrupt
                  0x005e5a                  _gps_nav_valid
                  0x005e6a                  _gps_startup_sequence
                  0x005ea8                  build/default/production/_ext/1077471063/gpsParseSTD.o:_msg_B3
                  0x005ebc                  build/default/production/_ext/1077471063/gpsParseSTD.o:_msg_A0
                  0x005eda                  build/default/production/_ext/1077471063/gpsParseSTD.o:_msg_A2
                  0x005eea                  build/default/production/_ext/1077471063/gpsParseSTD.o:_msg_PL1
                  0x005f00                  build/default/production/_ext/1077471063/gpsParseSTD.o:_msg_PL2
                  0x005f3a                  build/default/production/_ext/1077471063/gpsParseSTD.o:_msg_MSG41
                  0x005f82                  build/default/production/_ext/1077471063/gpsParseSTD.o:_msg_MSGU
                  0x005faa                  build/default/production/_ext/1077471063/gpsParseSTD.o:_msg_B0
                  0x005fd8                  _gps_commit_data
                  0x006016                  _gps_update_basic_data
                  0x006020                  _init_gps_std
                  0x006026                  _initMPUSPI_master16
                  0x006064                  _writeMPUSPIreg16
                  0x00609a                  build/default/production/_ext/1077454706/mpu_spi.o:_no_call_back
                  0x0060a0                  _readMPUSPI_burst16n
                  0x0060d8                  __SPI2Interrupt
                  0x006184                  _readMPUSPIreg16
                  0x0061be                  _udb_cpu_load
                  0x0061d0                  _init_heartbeat
                  0x00622a                  _cpu_load_calc
                  0x006266                  _udb_init_clock
                  0x006274                  __T1Interrupt
                  0x00629c                  __T5Interrupt
                  0x0062ba                  __T6Interrupt
                  0x0062ea                  _udb_background_trigger_pulse
                  0x0062f8                  __T7Interrupt
                  0x006328                  _udb_background_trigger
                  0x006336                  _get_reset_flags
                  0x006354                  _configureDigitalIO
                  0x0063e4                  _init_leds
                  0x0063fa                  _mcu_init
                  0x00643a                  _MPU6000_init16
                  0x0064a2                  _process_MPU_data
                  0x0064c8                  _MPU6000_read
                  0x0064de                  __INT3Interrupt
                  0x006506                  _MPU6000_print
                  0x006534                  _heartbeat_chk
                  0x006560                  _heartbeat_cnt
                  0x006568                  _heartbeat
                  0x0065a4                  build/default/production/_ext/1077454706/heartbeat.o:_pulse
                  0x0065d4                  _udb_init
                  0x0065fc                  _udb_run
                  0x006604                  _udb_a2d_record_offsets
                  0x006622                  _udb_servo_pulsesat
                  0x006650                  _get_barometer_temperature
                  0x006658                  _get_barometer_pressure
                  0x006662                  _get_barometer_altitude
                  0x00666c                  _get_barometer_agl_altitude
                  0x006676                  _altimeter_calibrate
                  0x0066c4                  _estAltitude
                  0x0066ca                  _dcm_enable_yaw_drift_correction
                  0x0066ec                  _estYawDrift
                  0x00673c                  _SP_start
                  0x006740                  _SP_limit
                  0x006744                  _SP_current
                  0x006748                  _getErrLoc
                  0x00675e                  _setjmp
                  0x006774                  _gentrap
                  0x00677c                  ___delay32
                  0x006798                  _init_analogs
                  0x00679e                  _calculate_analog_sensor_values
                  0xf80004                  __FGS.sec

External Symbols in Program Memory (by name):

                  0x0010d4                  _CloseSPI2
                  0x0010dc                  _ConfigIntSPI2
                  0x000c02                  _FindFirstBitChangeFromLeft
                  0x000c06                  _FindFirstBitFromLeft
                  0x00643a                  _MPU6000_init16
                  0x006506                  _MPU6000_print
                  0x0064c8                  _MPU6000_read
                  0x000c0a                  _MatrixAdd
                  0x000c4a                  _MatrixMultiply
                  0x000cc4                  _MatrixScale
                  0x000d00                  _MatrixSubtract
                  0x000d4e                  _MatrixTranspose
                  0x0010fe                  _OpenSPI2
                  0x006744                  _SP_current
                  0x006740                  _SP_limit
                  0x00673c                  _SP_start
                  0x000d96                  _VectorAdd
                  0x000dd4                  _VectorConvolve
                  0x000ecc                  _VectorCopy
                  0x000edc                  _VectorCorrelate
                  0x003e74                  _VectorCross
                  0x000f0c                  _VectorDotProduct
                  0x000f46                  _VectorMax
                  0x000f60                  _VectorMin
                  0x000f7a                  _VectorMultiply
                  0x000fb6                  _VectorNegate
                  0x000ff6                  _VectorPower
                  0x00102e                  _VectorScale
                  0x00106a                  _VectorSubtract
                  0x0010b6                  _VectorZeroPad
                  0x0021b6                  __Atexit
                  0x002084                  __Closreg
                  0x005724                  __DMA0Interrupt
                  0x002138                  __DNKfflush
                  0x0002d0                  __DefaultInterrupt
                  0x0021d2                  __Dnorm
                  0xf80004                  __FGS.sec
                  0x001b94                  __Fwprep
                  0x002388                  __Getmem
                  0x0049d0                  __IC1Interrupt
                  0x004a20                  __IC2Interrupt
                  0x004a70                  __IC3Interrupt
                  0x004ac0                  __IC4Interrupt
                  0x004b10                  __IC5Interrupt
                  0x004b60                  __IC6Interrupt
                  0x004bb0                  __IC7Interrupt
                  0x0064de                  __INT3Interrupt
                  0x001c22                  __LDunscale
                  0x001c76                  __Litob
                  0x001f02                  __Puttxt
                  0x0060d8                  __SPI2Interrupt
                  0x006274                  __T1Interrupt
                  0x005d02                  __T4Interrupt
                  0x00629c                  __T5Interrupt
                  0x0062ba                  __T6Interrupt
                  0x0062f8                  __T7Interrupt
                  0x0054e8                  __U1RXInterrupt
                  0x0054b0                  __U1TXInterrupt
                  0x00561c                  __U2RXInterrupt
                  0x0055e4                  __U2TXInterrupt
                  0x00207a                  __Vacopy
                  0x0009fa                  ___Genld_cdfFnopsuxX
                  0x000786                  ___Ldtob_cdfFnopsuxX
                  0x00032c                  ___Printf_cdfFnopsuxX
                  0x00032c                  ___Printf_cdnopuxX
                  0x00049e                  ___Putfld_cdfFnopsuxX
                  0x00049e                  ___Putfld_cdnopuxX
                  0x002756                  ___adddf3
                  0x001108                  ___addsf3
                  0x00677c                  ___delay32
                  0x002482                  ___divdf3
                  0x001678                  ___divdi3
                  0x0011c2                  ___divsf3
                  0x001246                  ___divsi3
                  0x00246e                  ___eqdf2
                  0x001866                  ___eqsf2
                  0x0025c0                  ___extendsfdf2
                  0x0025fe                  ___fixdfsi
                  0x00186e                  ___fixsfsi
                  0x002930                  ___floatdidf
                  0x002656                  ___floatsidf
                  0x001264                  ___floatsisf
                  0x001280                  ___floatunsisf
                  0x002478                  ___gedf2
                  0x00186a                  ___gesf2
                  0x002478                  ___gtdf2
                  0x00186a                  ___gtsf2
                  0x00246e                  ___ledf2
                  0x001866                  ___lesf2
                  0x00246e                  ___ltdf2
                  0x001866                  ___ltsf2
                  0x0016de                  ___moddi3
                  0x00133c                  ___modsi3
                  0x00265c                  ___muldf3
                  0x00274a                  ___mulp32eds3
                  0x00274a                  ___mulp32peds3
                  0x0019cc                  ___mulsf3
                  0x00274a                  ___mulsi3
                  0x002746                  ___subdf3
                  0x001106                  ___subsf3
                  0x001662                  ___udivdi3
                  0x00159e                  ___udivmoddi3
                  0x001520                  ___udivsi3
                  0x001670                  ___umoddi3
                  0x001540                  ___umodsi3
                  0x0028a2                  __dPropagateNaN
                  0x000232                  __data_init
                  0x000232                  __data_init_standard
                  0x002850                  __dcompare
                  0x002536                  __dpack
                  0x0025b0                  __dreturnNaN
                  0x0028be                  __dtype
                  0x0028e2                  __dunpack
                  0x00258e                  __dunpack2
                  0x0025b6                  __dunpack2exit
                  0x00131c                  __fPropagateNaN
                  0x00132e                  __fbopExit
                  0x001336                  __fbopReturnNaN
                  0x001818                  __fchop
                  0x001a34                  __fcompare
                  0x0012c0                  __fpack
                  0x00173a                  __frexpf
                  0x0018b0                  __funpack
                  0x00130c                  __funpack2
                  0x0002f0                  __printf_cdnopuxX
                  0x000222                  __psv_init
                  0x000200                  __resetPRI
                  0x00030e                  __sprintf_cdfFnopsuxX
                  0x006676                  _altimeter_calibrate
                  0x00379a                  _arcsine
                  0x002cd0                  _bin_mode
                  0x00679e                  _calculate_analog_sensor_values
                  0x0047fe                  _calculate_time_of_week
                  0x00470a                  _calculate_week_num
                  0x006354                  _configureDigitalIO
                  0x00383a                  _cosine
                  0x00622a                  _cpu_load_calc
                  0x002e66                  _days_in_month
                  0x0059b2                  _dcm_absolute_to_relative
                  0x005892                  _dcm_align_tilt
                  0x005962                  _dcm_calibrate
                  0x002eda                  _dcm_callback_gps_location_updated
                  0x0066ca                  _dcm_enable_yaw_drift_correction
                  0x00309e                  _dcm_heartbeat_callback
                  0x005884                  _dcm_init
                  0x003f36                  _dcm_init_rmat
                  0x005a0e                  _dcm_rel2abs
                  0x004442                  _dcm_run_imu_step
                  0x005912                  _dcm_run_init_step
                  0x005974                  _dcm_set_origin_location
                  0x004ee8                  _dead_reckon
                  0x001a88                  _div
                  0x005bf8                  _eeprom_ByteRead
                  0x005b92                  _eeprom_ByteWrite
                  0x005bb8                  _eeprom_PageWrite
                  0x005c2a                  _eeprom_SequentialRead
                  0x0066c4                  _estAltitude
                  0x0066ec                  _estYawDrift
                  0x00517a                  _estimateWind
                  0x001754                  _expf
                  0x002098                  _fclose
                  0x003dfa                  _find_first_bit_int16
                  0x003e22                  _find_first_bit_int32
                  0x00226c                  _free
                  0x001a9e                  _fwrite
                  0x006774                  _gentrap
                  0x006748                  _getErrLoc
                  0x00666c                  _get_barometer_agl_altitude
                  0x006662                  _get_barometer_altitude
                  0x006658                  _get_barometer_pressure
                  0x006650                  _get_barometer_temperature
                  0x004456                  _get_gps_date
                  0x004460                  _get_gps_time
                  0x006336                  _get_reset_flags
                  0x005fd8                  _gps_commit_data
                  0x00446a                  _gps_init
                  0x0044de                  _gps_nav_capable_check_set
                  0x005e5a                  _gps_nav_valid
                  0x004510                  _gps_parse_common
                  0x005e6a                  _gps_startup_sequence
                  0x006016                  _gps_update_basic_data
                  0x004472                  _gpsoutbin
                  0x00448e                  _gpsoutline
                  0x006568                  _heartbeat
                  0x006534                  _heartbeat_chk
                  0x006560                  _heartbeat_cnt
                  0x006026                  _initMPUSPI_master16
                  0x006798                  _init_analogs
                  0x002e94                  _init_events
                  0x006020                  _init_gps_std
                  0x0061d0                  _init_heartbeat
                  0x0063e4                  _init_leds
                  0x0018da                  _ldexpf
                  0x001b46                  _ldiv
                  0x00191e                  _logf
                  0x003d6c                  _long_scale
                  0x002e72                  _main
                  0x002334                  _malloc
                  0x0063fa                  _mcu_init
                  0x001b70                  _memchr
                  0x001a6a                  _memcpy
                  0x002cec                  _mode
                  0x002cf6                  _mode_length
                  0x002cf8                  _msg41parse
                  0x003738                  _osd_init
                  0x00135a                  _powf
                  0x0064a2                  _process_MPU_data
                  0x004956                  _radioIn_failsafe_check
                  0x004982                  _radioIn_failsafe_reset
                  0x0060a0                  _readMPUSPI_burst16n
                  0x006184                  _readMPUSPIreg16
                  0x003f72                  _read_accel
                  0x00399a                  _rect_to_polar
                  0x003a4e                  _rect_to_polar16
                  0x002f6c                  _remove_offset
                  0x002fb4                  _roll_feedback
                  0x003930                  _rotate_2D
                  0x0038b6                  _rotate_2D_long_vector_by_vector
                  0x003914                  _rotate_2D_vector_by_angle
                  0x003848                  _rotate_2D_vector_by_vector
                  0x002efc                  _saturate
                  0x002f28                  _saturate_32
                  0x0033a0                  _send_debug_line
                  0x00675e                  _setjmp
                  0x00373e                  _sine
                  0x002db0                  _sintab
                  0x003b28                  _sqrt_int
                  0x003b92                  _sqrt_long
                  0x005cec                  _start_pwm_outputs
                  0x001b82                  _strchr
                  0x001a78                  _strlen
                  0x002f8c                  _tilt_feedback
                  0x006604                  _udb_a2d_record_offsets
                  0x006328                  _udb_background_trigger
                  0x0062ea                  _udb_background_trigger_pulse
                  0x003732                  _udb_callback_radio_did_turn_off
                  0x003fda                  _udb_callback_read_sensors
                  0x0061be                  _udb_cpu_load
                  0x005a94                  _udb_eeprom_init
                  0x0044a4                  _udb_gps_callback_get_byte_to_send
                  0x0044d0                  _udb_gps_callback_received_byte
                  0x005478                  _udb_gps_check_rate
                  0x005450                  _udb_gps_set_rate
                  0x0054a8                  _udb_gps_start_sending_data
                  0x002e9a                  _udb_heartbeat_40hz_callback
                  0x005940                  _udb_heartbeat_callback
                  0x0065d4                  _udb_init
                  0x005656                  _udb_init_ADC
                  0x0053f0                  _udb_init_GPS
                  0x005522                  _udb_init_USART
                  0x004910                  _udb_init_capture
                  0x006266                  _udb_init_clock
                  0x005c88                  _udb_init_pwm
                  0x0065fc                  _udb_run
                  0x003708                  _udb_serial_callback_get_byte_to_send
                  0x00372a                  _udb_serial_callback_received_byte
                  0x0055ac                  _udb_serial_check_rate
                  0x005584                  _udb_serial_set_rate
                  0x0055dc                  _udb_serial_start_sending_data
                  0x006622                  _udb_servo_pulsesat
                  0x0048e8                  _udb_servo_record_trims
                  0x005cd0                  _udb_set_action_state
                  0x003c34                  _vector2_mag
                  0x003c80                  _vector2_normalize
                  0x003c54                  _vector3_mag
                  0x003ce2                  _vector3_normalize
                  0x006064                  _writeMPUSPIreg16
                  0x003f24                  _yaw_drift_reset
                  0x0065a4                  build/default/production/_ext/1077454706/heartbeat.o:_pulse
                  0x00609a                  build/default/production/_ext/1077454706/mpu_spi.o:_no_call_back
                  0x00451a                  build/default/production/_ext/1077471063/gpsParseCommon.o:_udb_background_callback_triggered
                  0x005ebc                  build/default/production/_ext/1077471063/gpsParseSTD.o:_msg_A0
                  0x005eda                  build/default/production/_ext/1077471063/gpsParseSTD.o:_msg_A2
                  0x005faa                  build/default/production/_ext/1077471063/gpsParseSTD.o:_msg_B0
                  0x005ea8                  build/default/production/_ext/1077471063/gpsParseSTD.o:_msg_B3
                  0x005f3a                  build/default/production/_ext/1077471063/gpsParseSTD.o:_msg_MSG41
                  0x005f82                  build/default/production/_ext/1077471063/gpsParseSTD.o:_msg_MSGU
                  0x005eea                  build/default/production/_ext/1077471063/gpsParseSTD.o:_msg_PL1
                  0x005f00                  build/default/production/_ext/1077471063/gpsParseSTD.o:_msg_PL2
                  0x002120                  fclose.XXelo:_closeall
                  0x0002d4                  printf_cdnopuxX.XXeo:_prout
                  0x000300                  sprintf_cdfFnopsuxX.XXeo:_prout

Memory Configuration

Name             Origin             Length             Attributes
data             0x000800           0x007800           a !xr
reset            0x000000           0x000004  
ivt              0x000004           0x0000fc  
_reserved        0x000100           0x000004  
aivt             0x000104           0x0000fc  
program          0x000200           0x02a9fe           xr
FBS              0xf80000           0x000002  
FSS              0xf80002           0x000002  
FGS              0xf80004           0x000002  
FOSCSEL          0xf80006           0x000002  
FOSC             0xf80008           0x000002  
FWDT             0xf8000a           0x000002  
FPOR             0xf8000c           0x000002  
FICD             0xf8000e           0x000002  
FUID0            0xf80010           0x000002  
FUID1            0xf80012           0x000002  
FUID2            0xf80014           0x000002  
FUID3            0xf80016           0x000002  
*default*        0x000000           0xffffffff  

Linker script and memory map

LOAD build/default/production/_ext/1077471063/estWind.o
LOAD build/default/production/_ext/1077471063/estYawDrift.o
LOAD build/default/production/_ext/1077471063/gpsParseCommon.o
LOAD build/default/production/_ext/1077471063/gpsParseSTD.o
LOAD build/default/production/_ext/1077471063/gpsParseUBX.o
LOAD build/default/production/_ext/1077471063/mathlibNAV.o
LOAD build/default/production/_ext/1077471063/rmat.o
LOAD build/default/production/_ext/1077471063/libDCM.o
LOAD build/default/production/_ext/1077471063/deadReckoning.o
LOAD build/default/production/_ext/1077471063/estAltitude.o
LOAD build/default/production/_ext/1077471063/fbcl.o
LOAD build/default/production/_ext/1077471063/gpsParseMTEK.o
LOAD build/default/production/_ext/1077471063/gpsParseNMEA.o
LOAD build/default/production/_ext/1077454706/background.o
LOAD build/default/production/_ext/1077454706/libUDB.o
LOAD build/default/production/_ext/1077454706/analog2digital_udb4.o
LOAD build/default/production/_ext/1077454706/servoOut.o
LOAD build/default/production/_ext/1077454706/mpu6000.o
LOAD build/default/production/_ext/1077454706/analog2digital_udb5.o
LOAD build/default/production/_ext/1077454706/eeprom_udb4.o
LOAD build/default/production/_ext/1077454706/traps_asm.o
LOAD build/default/production/_ext/1077454706/magnetometer.o
LOAD build/default/production/_ext/1077454706/mcu.o
LOAD build/default/production/_ext/1077454706/radioIn.o
LOAD build/default/production/_ext/1077454706/serialIO.o
LOAD build/default/production/_ext/1077454706/mpu_spi.o
LOAD build/default/production/_ext/1077454706/analogs.o
LOAD build/default/production/_ext/1077454706/heartbeat.o
LOAD build/default/production/_ext/679848855/madd.o
LOAD build/default/production/_ext/679848855/mmul.o
LOAD build/default/production/_ext/679848855/mscl.o
LOAD build/default/production/_ext/679848855/msub.o
LOAD build/default/production/_ext/679848855/mtrp.o
LOAD build/default/production/_ext/679848855/vadd.o
LOAD build/default/production/_ext/679848855/vcon.o
LOAD build/default/production/_ext/679848855/vcopy.o
LOAD build/default/production/_ext/679848855/vcor.o
LOAD build/default/production/_ext/679848855/vdot.o
LOAD build/default/production/_ext/679848855/vmax.o
LOAD build/default/production/_ext/679848855/vmin.o
LOAD build/default/production/_ext/679848855/vmul.o
LOAD build/default/production/_ext/679848855/vneg.o
LOAD build/default/production/_ext/679848855/vpow.o
LOAD build/default/production/_ext/679848855/vscl.o
LOAD build/default/production/_ext/679848855/vsub.o
LOAD build/default/production/_ext/679848855/vzpad.o
LOAD build/default/production/_ext/1472/main.o
                    0x0001                  __MPLAB_BUILD = 0x1
LOAD /opt/microchip/xc16/v1.10/bin/bin/../../lib/dsPIC33F/libp33FJ256GP710A-elf.a
                    0xf80000                  __FBS = 0xf80000
                    0xf80002                  __FSS = 0xf80002
                    0xf80004                  __FGS = 0xf80004
                    0xf80006                  __FOSCSEL = 0xf80006
                    0xf80008                  __FOSC = 0xf80008
                    0xf8000a                  __FWDT = 0xf8000a
                    0xf8000c                  __FPOR = 0xf8000c
                    0xf8000e                  __FICD = 0xf8000e
                    0xf80010                  __FUID0 = 0xf80010
                    0xf80012                  __FUID1 = 0xf80012
                    0xf80014                  __FUID2 = 0xf80014
                    0xf80016                  __FUID3 = 0xf80016
                    0x0004                  __IVT_BASE = 0x4
                    0x0104                  __AIVT_BASE = 0x104
                    0x0800                  __DATA_BASE = 0x800
                    0x7800                  __DATA_LENGTH = 0x7800
                    0x4800                  __YDATA_BASE = 0x4800
                    0x7800                  __DMA_BASE = 0x7800
                    0x7fff                  __DMA_END = 0x7fff
                    0x0200                  __CODE_BASE = 0x200
                    0x2aa00                  __CODE_LENGTH = 0x2aa00

.reset            0x000000          0x4
                  0x000000          0x2 SHORT 0x200 ABSOLUTE (__reset)
                  0x000001          0x2 SHORT 0x4
                  0x000002          0x2 SHORT 0x0 ((ABSOLUTE (__reset) >> 0x10) & 0x7f)
                  0x000003          0x2 SHORT 0x0

.text             0x000200       0x279e
 *(.init)
 .init            0x000200         0x32 /opt/microchip/xc16/v1.10/bin/bin/../../lib/liblega-pic30-elf.a(crt0_standard.o)
                  0x000200                  __reset
                  0x000200                  __resetPRI
                  0x000222                  __psv_init
 .init            0x000232         0x5e /opt/microchip/xc16/v1.10/bin/bin/../../lib/liblega-pic30-elf.a(data_init_standard.o)
                  0x000232                  __data_init
                  0x000232                  __data_init_standard
 *(.user_init)
 *(.handle)
 .handle          0x000290         0x40 jump_table
 *(.isr*)
 .isr             0x0002d0          0x4 default_isr
                  0x0002d0                  __DefaultInterrupt
 *(.libc)
 .libc            0x0002d4         0x2c /opt/microchip/xc16/v1.10/bin/bin/../../lib/liblega-c-elf.a(printf_cdnopuxX.XXeo)
                  0x0002d4                  printf_cdnopuxX.XXeo:_prout
                  0x0002f0                  __printf_cdnopuxX
 .libc            0x000300         0x2c /opt/microchip/xc16/v1.10/bin/bin/../../lib/liblega-c-elf.a(sprintf_cdfFnopsuxX.XXeo)
                  0x000300                  sprintf_cdfFnopsuxX.XXeo:_prout
                  0x00030e                  __sprintf_cdfFnopsuxX
 .libc            0x00032c        0x172 /opt/microchip/xc16/v1.10/bin/bin/../../lib/liblega-c-elf.a(xprintf_cdfFnopsuxX.XXeo)
                  0x00032c                  ___Printf_cdfFnopsuxX
                  0x00032c                  ___Printf_cdnopuxX
 .libc            0x00049e        0x2e8 /opt/microchip/xc16/v1.10/bin/bin/../../lib/liblega-c-elf.a(xputfld_cdfFnopsuxX.XXeo)
                  0x00049e                  ___Putfld_cdnopuxX
                  0x00049e                  ___Putfld_cdfFnopsuxX
 .libc            0x000786        0x274 /opt/microchip/xc16/v1.10/bin/bin/../../lib/liblega-c-elf.a(xldtob_cdfFnopsuxX.XXeo)
                  0x000786                  ___Ldtob_cdfFnopsuxX
 .libc            0x0009fa        0x208 /opt/microchip/xc16/v1.10/bin/bin/../../lib/liblega-c-elf.a(xgenld_cdfFnopsuxX.XXeo)
                  0x0009fa                  ___Genld_cdfFnopsuxX
 *(.libm)
 *(.libdsp)
 .libdsp          0x000c02          0x8 build/default/production/_ext/1077471063/fbcl.o
                  0x000c02                  _FindFirstBitChangeFromLeft
                  0x000c06                  _FindFirstBitFromLeft
 .libdsp          0x000c0a         0x40 build/default/production/_ext/679848855/madd.o
                  0x000c0a                  _MatrixAdd
 .libdsp          0x000c4a         0x7a build/default/production/_ext/679848855/mmul.o
                  0x000c4a                  _MatrixMultiply
 .libdsp          0x000cc4         0x3c build/default/production/_ext/679848855/mscl.o
                  0x000cc4                  _MatrixScale
 .libdsp          0x000d00         0x4e build/default/production/_ext/679848855/msub.o
                  0x000d00                  _MatrixSubtract
 .libdsp          0x000d4e         0x48 build/default/production/_ext/679848855/mtrp.o
                  0x000d4e                  _MatrixTranspose
 .libdsp          0x000d96         0x3e build/default/production/_ext/679848855/vadd.o
                  0x000d96                  _VectorAdd
 .libdsp          0x000dd4         0xf8 build/default/production/_ext/679848855/vcon.o
                  0x000dd4                  _VectorConvolve
 .libdsp          0x000ecc         0x10 build/default/production/_ext/679848855/vcopy.o
                  0x000ecc                  _VectorCopy
 .libdsp          0x000edc         0x30 build/default/production/_ext/679848855/vcor.o
                  0x000edc                  _VectorCorrelate
 .libdsp          0x000f0c         0x3a build/default/production/_ext/679848855/vdot.o
                  0x000f0c                  _VectorDotProduct
 .libdsp          0x000f46         0x1a build/default/production/_ext/679848855/vmax.o
                  0x000f46                  _VectorMax
 .libdsp          0x000f60         0x1a build/default/production/_ext/679848855/vmin.o
                  0x000f60                  _VectorMin
 .libdsp          0x000f7a         0x3c build/default/production/_ext/679848855/vmul.o
                  0x000f7a                  _VectorMultiply
 .libdsp          0x000fb6         0x40 build/default/production/_ext/679848855/vneg.o
                  0x000fb6                  _VectorNegate
 .libdsp          0x000ff6         0x38 build/default/production/_ext/679848855/vpow.o
                  0x000ff6                  _VectorPower
 .libdsp          0x00102e         0x3c build/default/production/_ext/679848855/vscl.o
                  0x00102e                  _VectorScale
 .libdsp          0x00106a         0x4c build/default/production/_ext/679848855/vsub.o
                  0x00106a                  _VectorSubtract
 .libdsp          0x0010b6         0x1e build/default/production/_ext/679848855/vzpad.o
                  0x0010b6                  _VectorZeroPad
 *(.lib*)
 .libperi         0x0010d4          0x8 /opt/microchip/xc16/v1.10/bin/bin/../../lib/dsPIC33F/libp33FJ256GP710A-elf.a(CloseSPI2.o)
                  0x0010d4                  _CloseSPI2
 .libperi         0x0010dc         0x22 /opt/microchip/xc16/v1.10/bin/bin/../../lib/dsPIC33F/libp33FJ256GP710A-elf.a(ConfigIntSPI2.o)
                  0x0010dc                  _ConfigIntSPI2
 .libperi         0x0010fe          0x8 /opt/microchip/xc16/v1.10/bin/bin/../../lib/dsPIC33F/libp33FJ256GP710A-elf.a(OpenSPI2.o)
                  0x0010fe                  _OpenSPI2
 .libm.subsf3     0x001106         0xbc /opt/microchip/xc16/v1.10/bin/bin/../../lib/libm-elf.a(addsf3.eo)
                  0x001106                  ___subsf3
                  0x001108                  ___addsf3
 .libm.divfs3     0x0011c2         0x84 /opt/microchip/xc16/v1.10/bin/bin/../../lib/libm-elf.a(divsf3.eo)
                  0x0011c2                  ___divsf3
 .libm.divsi3     0x001246         0x1e /opt/microchip/xc16/v1.10/bin/bin/../../lib/libm-elf.a(divsi3.eo)
                  0x001246                  ___divsi3
 .libm.floatsisf
                  0x001264         0x1c /opt/microchip/xc16/v1.10/bin/bin/../../lib/libm-elf.a(floatsisf.eo)
                  0x001264                  ___floatsisf
 .libm.floatunsisf
                  0x001280         0x40 /opt/microchip/xc16/v1.10/bin/bin/../../lib/libm-elf.a(floatunsisf.eo)
                  0x001280                  ___floatunsisf
 .libm.fpack      0x0012c0         0x4c /opt/microchip/xc16/v1.10/bin/bin/../../lib/libm-elf.a(fpack.eo)
                  0x0012c0                  __fpack
 .libm.funpack2
                  0x00130c         0x10 /opt/microchip/xc16/v1.10/bin/bin/../../lib/libm-elf.a(funpack2.eo)
                  0x00130c                  __funpack2
 .libm.fPropagateNaN
                  0x00131c         0x12 /opt/microchip/xc16/v1.10/bin/bin/../../lib/libm-elf.a(futil.eo)
                  0x00131c                  __fPropagateNaN
 .libm.fbobExit
                  0x00132e          0x8 /opt/microchip/xc16/v1.10/bin/bin/../../lib/libm-elf.a(futil.eo)
                  0x00132e                  __fbopExit
 .libm.fbopReturnNaN
                  0x001336          0x6 /opt/microchip/xc16/v1.10/bin/bin/../../lib/libm-elf.a(futil.eo)
                  0x001336                  __fbopReturnNaN
 .libm.modsi3     0x00133c         0x1e /opt/microchip/xc16/v1.10/bin/bin/../../lib/libm-elf.a(modsi3.eo)
                  0x00133c                  ___modsi3
 .libm.powf       0x00135a        0x1c6 /opt/microchip/xc16/v1.10/bin/bin/../../lib/libm-elf.a(powf.eo)
                  0x00135a                  _powf
 .libm.udivsi3    0x001520         0x20 /opt/microchip/xc16/v1.10/bin/bin/../../lib/libm-elf.a(udivsi3.eo)
                  0x001520                  ___udivsi3
 .libm.umodsi3    0x001540          0x6 /opt/microchip/xc16/v1.10/bin/bin/../../lib/libm-elf.a(umodsi3.eo)
                  0x001540                  ___umodsi3
 .libm.__PplusBdi.__PplusBdi
                  0x001546         0x28 /opt/microchip/xc16/v1.10/bin/bin/../../lib/libm-elf.a(divmoddi3.eo)
 .libm.__PminusBdi.__PminusBdi
                  0x00156e         0x30 /opt/microchip/xc16/v1.10/bin/bin/../../lib/libm-elf.a(divmoddi3.eo)
 .libm.__udivmoddi3.__udivmoddi3
                  0x00159e         0xc4 /opt/microchip/xc16/v1.10/bin/bin/../../lib/libm-elf.a(divmoddi3.eo)
                  0x00159e                  ___udivmoddi3
 .libm.__udivdi3.__udivdi3
                  0x001662          0xe /opt/microchip/xc16/v1.10/bin/bin/../../lib/libm-elf.a(divmoddi3.eo)
                  0x001662                  ___udivdi3
 .libm.__umoddi3.__umoddi3
                  0x001670          0x8 /opt/microchip/xc16/v1.10/bin/bin/../../lib/libm-elf.a(divmoddi3.eo)
                  0x001670                  ___umoddi3
 .libm.__divdi3.__divdi3
                  0x001678         0x66 /opt/microchip/xc16/v1.10/bin/bin/../../lib/libm-elf.a(divmoddi3.eo)
                  0x001678                  ___divdi3
 .libm.__moddi3.__moddi3
                  0x0016de         0x5c /opt/microchip/xc16/v1.10/bin/bin/../../lib/libm-elf.a(divmoddi3.eo)
                  0x0016de                  ___moddi3
 .libm.frexpf     0x00173a         0x1a /opt/microchip/xc16/v1.10/bin/bin/../../lib/libm-elf.a(_frexpf.eo)
                  0x00173a                  __frexpf
 .libm.expf       0x001754         0xc4 /opt/microchip/xc16/v1.10/bin/bin/../../lib/libm-elf.a(expf.eo)
                  0x001754                  _expf
 .libm.fchop      0x001818         0x4e /opt/microchip/xc16/v1.10/bin/bin/../../lib/libm-elf.a(fchop.eo)
                  0x001818                  __fchop
 .libm.eqsf2      0x001866          0x4 /opt/microchip/xc16/v1.10/bin/bin/../../lib/libm-elf.a(feqltle.eo)
                  0x001866                  ___lesf2
                  0x001866                  ___eqsf2
                  0x001866                  ___ltsf2
 .libm.gtsf2      0x00186a          0x4 /opt/microchip/xc16/v1.10/bin/bin/../../lib/libm-elf.a(fgtge.eo)
                  0x00186a                  ___gtsf2
                  0x00186a                  ___gesf2
 .libm.fixsfsi    0x00186e         0x42 /opt/microchip/xc16/v1.10/bin/bin/../../lib/libm-elf.a(fixsfsi.eo)
                  0x00186e                  _(float, int, long long, short, float, short, int)
 .libm.funpack    0x0018b0         0x2a /opt/microchip/xc16/v1.10/bin/bin/../../lib/libm-elf.a(funpack.eo)
                  0x0018b0                  __funpack
 .libm.ldexpf     0x0018da         0x44 /opt/microchip/xc16/v1.10/bin/bin/../../lib/libm-elf.a(ldexpf.eo)
                  0x0018da                  _ldexpf
 .libm.logf       0x00191e         0xae /opt/microchip/xc16/v1.10/bin/bin/../../lib/libm-elf.a(logf.eo)
                  0x00191e                  _logf
 .libm.mulsf3     0x0019cc         0x68 /opt/microchip/xc16/v1.10/bin/bin/../../lib/libm-elf.a(mulsf3.eo)
                  0x0019cc                  ___mulsf3
 .libm.fcompare
                  0x001a34         0x36 /opt/microchip/xc16/v1.10/bin/bin/../../lib/libm-elf.a(fcompare.eo)
                  0x001a34                  __fcompare
 .libc.memcpy.memcpy
                  0x001a6a          0xe /opt/microchip/xc16/v1.10/bin/bin/../../lib/liblega-c-elf.a(memcpy.XXeo)
                  0x001a6a                  _memcpy
 .libc.strlen.strlen
                  0x001a78         0x10 /opt/microchip/xc16/v1.10/bin/bin/../../lib/liblega-c-elf.a(strlen.XXeo)
                  0x001a78                  _strlen
 .libc.div.div    0x001a88         0x16 /opt/microchip/xc16/v1.10/bin/bin/../../lib/liblega-c-elf.a(div.XXeo)
                  0x001a88                  _div
 .libc.fwrite.fwrite
                  0x001a9e         0xa8 /opt/microchip/xc16/v1.10/bin/bin/../../lib/liblega-c-elf.a(fwrite.XXeo)
                  0x001a9e                  _fwrite
 .libc.ldiv.ldiv
                  0x001b46         0x2a /opt/microchip/xc16/v1.10/bin/bin/../../lib/liblega-c-elf.a(ldiv.XXeo)
                  0x001b46                  _ldiv
 .libc.memchr.memchr
                  0x001b70         0x12 /opt/microchip/xc16/v1.10/bin/bin/../../lib/liblega-c-elf.a(memchr.XXeo)
                  0x001b70                  _memchr
 .libc.strchr.strchr
                  0x001b82         0x12 /opt/microchip/xc16/v1.10/bin/bin/../../lib/liblega-c-elf.a(strchr.XXeo)
                  0x001b82                  _strchr
 .libc._Fwprep._Fwprep
                  0x001b94         0x8e /opt/microchip/xc16/v1.10/bin/bin/../../lib/liblega-c-elf.a(xfwprep.XXeo)
                  0x001b94                  __Fwprep
 .libc._LDunscale._LDunscale
                  0x001c22         0x54 /opt/microchip/xc16/v1.10/bin/bin/../../lib/liblega-c-elf.a(xldunsca.XXeo)
                  0x001c22                  __LDunscale
 .libc._Litob._Litob
                  0x001c76        0x28c /opt/microchip/xc16/v1.10/bin/bin/../../lib/liblega-c-elf.a(xlitob.XXeo)
                  0x001c76                  __Litob
 .libc._Puttxt._Puttxt
                  0x001f02        0x178 /opt/microchip/xc16/v1.10/bin/bin/../../lib/liblega-c-elf.a(xputtxt.XXeo)
                  0x001f02                  __Puttxt
 .libc._Vacopy._Vacopy
                  0x00207a          0x4 /opt/microchip/xc16/v1.10/bin/bin/../../lib/liblega-c-elf.a(xvacopy.XXeo)
                  0x00207a                  __Vacopy
 .libc.closeallreg.closeallreg
                  0x00207e          0x6 /opt/microchip/xc16/v1.10/bin/bin/../../lib/liblega-c-elf.a(fclose.XXelo)
 .libc._Closreg._Closreg
                  0x002084         0x14 /opt/microchip/xc16/v1.10/bin/bin/../../lib/liblega-c-elf.a(fclose.XXelo)
                  0x002084                  __Closreg
 .libc.fclose.fclose
                  0x002098         0x88 /opt/microchip/xc16/v1.10/bin/bin/../../lib/liblega-c-elf.a(fclose.XXelo)
                  0x002098                  _fclose
 .libc.closeall.closeall
                  0x002120         0x18 /opt/microchip/xc16/v1.10/bin/bin/../../lib/liblega-c-elf.a(fclose.XXelo)
                  0x002120                  fclose.XXelo:_closeall
 .libc._DNKfflush._DNKfflush
                  0x002138         0x7e /opt/microchip/xc16/v1.10/bin/bin/../../lib/liblega-c-elf.a(fflush.XXelo)
                  0x002138                  __DNKfflush
 .libc._Atexit._Atexit
                  0x0021b6         0x1c /opt/microchip/xc16/v1.10/bin/bin/../../lib/liblega-c-elf.a(xatexit.XXelo)
                  0x0021b6                  __Atexit
 .libc._Dnorm._Dnorm
                  0x0021d2         0x9a /opt/microchip/xc16/v1.10/bin/bin/../../lib/liblega-c-elf.a(xdnorm.XXelo)
                  0x0021d2                  __Dnorm
 .libc.free.free
                  0x00226c         0x64 /opt/microchip/xc16/v1.10/bin/bin/../../lib/liblega-c-elf.a(free.XXeo)
                  0x00226c                  _free
 .libc.findmem.findmem
                  0x0022d0         0x64 /opt/microchip/xc16/v1.10/bin/bin/../../lib/liblega-c-elf.a(malloc.XXeo)
 .libc.malloc.malloc
                  0x002334         0x54 /opt/microchip/xc16/v1.10/bin/bin/../../lib/liblega-c-elf.a(malloc.XXeo)
                  0x002334                  _malloc
 .libc._Getmem._Getmem
                  0x002388         0x14 /opt/microchip/xc16/v1.10/bin/bin/../../lib/liblega-c-elf.a(xgetmem.XXeo)
                  0x002388                  __Getmem
 .libc.doclose.doclose
                  0x00239c          0x4 /opt/microchip/xc16/v1.10/bin/bin/../../lib/liblega-pic30-elf.a(close.Leo)
 .libc.close      0x0023a0         0x12 /opt/microchip/xc16/v1.10/bin/bin/../../lib/liblega-pic30-elf.a(close.Leo)
                  0x0023a0                  _close
 .libc.dowrite.dowrite
                  0x0023b2          0x4 /opt/microchip/xc16/v1.10/bin/bin/../../lib/liblega-pic30-elf.a(write.Leo)
 .libc.write      0x0023b6         0x5e /opt/microchip/xc16/v1.10/bin/bin/../../lib/liblega-pic30-elf.a(write.Leo)
                  0x0023b6                  _write
 .libc.doremove.doremove
                  0x002414          0x4 /opt/microchip/xc16/v1.10/bin/bin/../../lib/liblega-pic30-elf.a(remove.Leo)
 .libc.remove     0x002418         0x12 /opt/microchip/xc16/v1.10/bin/bin/../../lib/liblega-pic30-elf.a(remove.Leo)
                  0x002418                  _remove
 .libc.sbrk       0x00242a         0x28 /opt/microchip/xc16/v1.10/bin/bin/../../lib/liblega-pic30-elf.a(sbrk.Leo)
                  0x00242a                  _sbrk
 .libc.brk        0x002452         0x1c /opt/microchip/xc16/v1.10/bin/bin/../../lib/liblega-pic30-elf.a(brk.Lelo)
                  0x002452                  _brk
 .libm.eqdf2      0x00246e          0xa /opt/microchip/xc16/v1.10/bin/bin/../../lib/libm-elf.a(deqltle.eo)
                  0x00246e                  ___ledf2
                  0x00246e                  ___eqdf2
                  0x00246e                  ___ltdf2
 .libm.gtdf2      0x002478          0xa /opt/microchip/xc16/v1.10/bin/bin/../../lib/libm-elf.a(dgtge.eo)
                  0x002478                  ___gedf2
                  0x002478                  ___gtdf2
 .libm.divdf3     0x002482         0xb4 /opt/microchip/xc16/v1.10/bin/bin/../../lib/libm-elf.a(divdf3.eo)
                  0x002482                  ___divdf3
 .libm.dpack      0x002536         0x58 /opt/microchip/xc16/v1.10/bin/bin/../../lib/libm-elf.a(dpack.eo)
                  0x002536                  __dpack
 .libm.dunpack2
                  0x00258e         0x32 /opt/microchip/xc16/v1.10/bin/bin/../../lib/libm-elf.a(dunpack2.eo)
                  0x00258e                  __dunpack2
                  0x0025b0                  __dreturnNaN
                  0x0025b6                  __dunpack2exit
 .libm.extendsfdf2
                  0x0025c0         0x3e /opt/microchip/xc16/v1.10/bin/bin/../../lib/libm-elf.a(extendsfdf.eo)
                  0x0025c0                  ___extendsfdf2
 .libm.fixdfsi    0x0025fe         0x58 /opt/microchip/xc16/v1.10/bin/bin/../../lib/libm-elf.a(fixdfsi.eo)
                  0x0025fe                  _(float, int, long long, double, float, short, int)
 .libm.floatsidf
                  0x002656          0x6 /opt/microchip/xc16/v1.10/bin/bin/../../lib/libm-elf.a(floatsidf.eo)
                  0x002656                  ___floatsidf
 .libm.muldf3     0x00265c         0xea /opt/microchip/xc16/v1.10/bin/bin/../../lib/libm-elf.a(muldf3.eo)
                  0x00265c                  ___muldf3
 .libm.subdf3     0x002746          0x4 /opt/microchip/xc16/v1.10/bin/bin/../../lib/libm-elf.a(subdf3.eo)
                  0x002746                  ___subdf3
 .libm.mulsi3     0x00274a          0xc /opt/microchip/xc16/v1.10/bin/bin/../../lib/libm-elf.a(mulsi3.eo)
                  0x00274a                  ___mulp32eds3
                  0x00274a                  ___mulp32peds3
                  0x00274a                  ___mulsi3
 .libm.adddf3     0x002756         0xfa /opt/microchip/xc16/v1.10/bin/bin/../../lib/libm-elf.a(adddf3.eo)
                  0x002756                  ___adddf3
 .libm.dcompare
                  0x002850         0x52 /opt/microchip/xc16/v1.10/bin/bin/../../lib/libm-elf.a(dcompare.eo)
                  0x002850                  __dcompare
 .libm.dPropagateNaN
                  0x0028a2         0x1c /opt/microchip/xc16/v1.10/bin/bin/../../lib/libm-elf.a(dpropagateNaN.eo)
                  0x0028a2                  __dPropagateNaN
 .libm.dtype      0x0028be         0x24 /opt/microchip/xc16/v1.10/bin/bin/../../lib/libm-elf.a(dtype.eo)
                  0x0028be                  __dtype
 .libm.dunpack    0x0028e2         0x4e /opt/microchip/xc16/v1.10/bin/bin/../../lib/libm-elf.a(dunpack.eo)
                  0x0028e2                  __dunpack
 .libm.floatdidf
                  0x002930         0x6e /opt/microchip/xc16/v1.10/bin/bin/../../lib/libm-elf.a(floatdidf.eo)
                  0x002930                  ___floatdidf

usercode
 *(usercode)

__FBS
 *(__FBS.sec*)

__FSS
 *(__FSS.sec*)

__FGS             0xf80004          0x2
 *(__FGS.sec*)
 __FGS.sec        0xf80004          0x2 FGS
                  0xf80004                  __FGS.sec

__FOSCSEL         0xf80006          0x2
 *(__FOSCSEL.sec*)
 __FOSCSEL.sec    0xf80006          0x2 build/default/production/_ext/1077454706/mcu.o

__FOSC            0xf80008          0x2
 *(__FOSC.sec*)
 __FOSC.sec       0xf80008          0x2 build/default/production/_ext/1077454706/mcu.o

__FWDT            0xf8000a          0x2
 *(__FWDT.sec*)
 __FWDT.sec       0xf8000a          0x2 build/default/production/_ext/1077454706/mcu.o

__FPOR            0xf8000c          0x2
 *(__FPOR.sec*)
 __FPOR.sec       0xf8000c          0x2 build/default/production/_ext/1077454706/mcu.o

__FICD            0xf8000e          0x2
 *(__FICD.sec*)
 __FICD.sec       0xf8000e          0x2 build/default/production/_ext/1077454706/mcu.o

__FUID0
 *(__FUID0.sec*)

__FUID1
 *(__FUID1.sec*)

__FUID2
 *(__FUID2.sec*)

__FUID3
 *(__FUID3.sec*)

.comment          0x000000         0x5e
 *(.comment)
 .comment         0x000000         0x5e /opt/microchip/xc16/v1.10/bin/bin/../../lib/liblega-c-elf.a(xfiles.XXeo)

.debug_info       0x000000      0x13989
 *(.debug_info)
 .debug_info      0x000000        0x6d1 build/default/production/_ext/1077471063/estWind.o
 .debug_info      0x0006d1        0x4b1 build/default/production/_ext/1077471063/estYawDrift.o
 .debug_info      0x000b82        0xec8 build/default/production/_ext/1077471063/gpsParseCommon.o
 .debug_info      0x001a4a        0x946 build/default/production/_ext/1077471063/gpsParseSTD.o
 .debug_info      0x002390        0x19d build/default/production/_ext/1077471063/gpsParseUBX.o
 .debug_info      0x00252d        0xa1e build/default/production/_ext/1077471063/mathlibNAV.o
 .debug_info      0x002f4b        0x8da build/default/production/_ext/1077471063/rmat.o
 .debug_info      0x003825        0x7c7 build/default/production/_ext/1077471063/libDCM.o
 .debug_info      0x003fec        0x72b build/default/production/_ext/1077471063/deadReckoning.o
 .debug_info      0x004717        0x460 build/default/production/_ext/1077471063/estAltitude.o
 .debug_info      0x004b77         0xdf build/default/production/_ext/1077471063/fbcl.o
 .debug_info      0x004c56        0x19e build/default/production/_ext/1077471063/gpsParseMTEK.o
 .debug_info      0x004df4        0x19e build/default/production/_ext/1077471063/gpsParseNMEA.o
 .debug_info      0x004f92       0x1981 build/default/production/_ext/1077454706/background.o
 .debug_info      0x006913        0x6b0 build/default/production/_ext/1077454706/libUDB.o
 .debug_info      0x006fc3        0x19c build/default/production/_ext/1077454706/analog2digital_udb4.o
 .debug_info      0x00715f       0x107b build/default/production/_ext/1077454706/servoOut.o
 .debug_info      0x0081da        0xc12 build/default/production/_ext/1077454706/mpu6000.o
 .debug_info      0x008dec       0x1b00 build/default/production/_ext/1077454706/analog2digital_udb5.o
 .debug_info      0x00a8ec        0x6d9 build/default/production/_ext/1077454706/eeprom_udb4.o
 .debug_info      0x00afc5         0xe4 build/default/production/_ext/1077454706/traps_asm.o
 .debug_info      0x00b0a9        0x274 build/default/production/_ext/1077454706/magnetometer.o
 .debug_info      0x00b31d        0xbb1 build/default/production/_ext/1077454706/mcu.o
 .debug_info      0x00bece       0x26b5 build/default/production/_ext/1077454706/radioIn.o
 .debug_info      0x00e583       0x1894 build/default/production/_ext/1077454706/serialIO.o
 .debug_info      0x00fe17        0xdb4 build/default/production/_ext/1077454706/mpu_spi.o
 .debug_info      0x010bcb        0x1da build/default/production/_ext/1077454706/analogs.o
 .debug_info      0x010da5        0x390 build/default/production/_ext/1077454706/heartbeat.o
 .debug_info      0x011135         0xe8 build/default/production/_ext/679848855/madd.o
 .debug_info      0x01121d         0xe8 build/default/production/_ext/679848855/mmul.o
 .debug_info      0x011305         0xe8 build/default/production/_ext/679848855/mscl.o
 .debug_info      0x0113ed         0xe8 build/default/production/_ext/679848855/msub.o
 .debug_info      0x0114d5         0xe8 build/default/production/_ext/679848855/mtrp.o
 .debug_info      0x0115bd         0xe8 build/default/production/_ext/679848855/vadd.o
 .debug_info      0x0116a5         0xe8 build/default/production/_ext/679848855/vcon.o
 .debug_info      0x01178d         0xe9 build/default/production/_ext/679848855/vcopy.o
 .debug_info      0x011876         0xe8 build/default/production/_ext/679848855/vcor.o
 .debug_info      0x01195e         0xe8 build/default/production/_ext/679848855/vdot.o
 .debug_info      0x011a46         0xe8 build/default/production/_ext/679848855/vmax.o
 .debug_info      0x011b2e         0xe8 build/default/production/_ext/679848855/vmin.o
 .debug_info      0x011c16         0xe8 build/default/production/_ext/679848855/vmul.o
 .debug_info      0x011cfe         0xe8 build/default/production/_ext/679848855/vneg.o
 .debug_info      0x011de6         0xe8 build/default/production/_ext/679848855/vpow.o
 .debug_info      0x011ece         0xe8 build/default/production/_ext/679848855/vscl.o
 .debug_info      0x011fb6         0xe8 build/default/production/_ext/679848855/vsub.o
 .debug_info      0x01209e         0xe9 build/default/production/_ext/679848855/vzpad.o
 .debug_info      0x012187       0x1802 build/default/production/_ext/1472/main.o
 *(.gnu.linkonce.wi.*)

.debug_abbrev     0x000000       0x1eb4
 *(.debug_abbrev)
 .debug_abbrev    0x000000         0xeb build/default/production/_ext/1077471063/estWind.o
 .debug_abbrev    0x0000eb         0xcf build/default/production/_ext/1077471063/estYawDrift.o
 .debug_abbrev    0x0001ba        0x1c5 build/default/production/_ext/1077471063/gpsParseCommon.o
 .debug_abbrev    0x00037f        0x18e build/default/production/_ext/1077471063/gpsParseSTD.o
 .debug_abbrev    0x00050d         0x1f build/default/production/_ext/1077471063/gpsParseUBX.o
 .debug_abbrev    0x00052c        0x182 build/default/production/_ext/1077471063/mathlibNAV.o
 .debug_abbrev    0x0006ae        0x17b build/default/production/_ext/1077471063/rmat.o
 .debug_abbrev    0x000829        0x16c build/default/production/_ext/1077471063/libDCM.o
 .debug_abbrev    0x000995         0xeb build/default/production/_ext/1077471063/deadReckoning.o
 .debug_abbrev    0x000a80         0xda build/default/production/_ext/1077471063/estAltitude.o
 .debug_abbrev    0x000b5a         0x14 build/default/production/_ext/1077471063/fbcl.o
 .debug_abbrev    0x000b6e         0x1f build/default/production/_ext/1077471063/gpsParseMTEK.o
 .debug_abbrev    0x000b8d         0x1f build/default/production/_ext/1077471063/gpsParseNMEA.o
 .debug_abbrev    0x000bac        0x156 build/default/production/_ext/1077454706/background.o
 .debug_abbrev    0x000d02        0x178 build/default/production/_ext/1077454706/libUDB.o
 .debug_abbrev    0x000e7a         0x1f build/default/production/_ext/1077454706/analog2digital_udb4.o
 .debug_abbrev    0x000e99        0x12e build/default/production/_ext/1077454706/servoOut.o
 .debug_abbrev    0x000fc7        0x13d build/default/production/_ext/1077454706/mpu6000.o
 .debug_abbrev    0x001104        0x199 build/default/production/_ext/1077454706/analog2digital_udb5.o
 .debug_abbrev    0x00129d        0x116 build/default/production/_ext/1077454706/eeprom_udb4.o
 .debug_abbrev    0x0013b3         0x14 build/default/production/_ext/1077454706/traps_asm.o
 .debug_abbrev    0x0013c7         0x4f build/default/production/_ext/1077454706/magnetometer.o
 .debug_abbrev    0x001416        0x131 build/default/production/_ext/1077454706/mcu.o
 .debug_abbrev    0x001547        0x1cf build/default/production/_ext/1077454706/radioIn.o
 .debug_abbrev    0x001716        0x153 build/default/production/_ext/1077454706/serialIO.o
 .debug_abbrev    0x001869        0x161 build/default/production/_ext/1077454706/mpu_spi.o
 .debug_abbrev    0x0019ca         0x34 build/default/production/_ext/1077454706/analogs.o
 .debug_abbrev    0x0019fe         0xf5 build/default/production/_ext/1077454706/heartbeat.o
 .debug_abbrev    0x001af3         0x14 build/default/production/_ext/679848855/madd.o
 .debug_abbrev    0x001b07         0x14 build/default/production/_ext/679848855/mmul.o
 .debug_abbrev    0x001b1b         0x14 build/default/production/_ext/679848855/mscl.o
 .debug_abbrev    0x001b2f         0x14 build/default/production/_ext/679848855/msub.o
 .debug_abbrev    0x001b43         0x14 build/default/production/_ext/679848855/mtrp.o
 .debug_abbrev    0x001b57         0x14 build/default/production/_ext/679848855/vadd.o
 .debug_abbrev    0x001b6b         0x14 build/default/production/_ext/679848855/vcon.o
 .debug_abbrev    0x001b7f         0x14 build/default/production/_ext/679848855/vcopy.o
 .debug_abbrev    0x001b93         0x14 build/default/production/_ext/679848855/vcor.o
 .debug_abbrev    0x001ba7         0x14 build/default/production/_ext/679848855/vdot.o
 .debug_abbrev    0x001bbb         0x14 build/default/production/_ext/679848855/vmax.o
 .debug_abbrev    0x001bcf         0x14 build/default/production/_ext/679848855/vmin.o
 .debug_abbrev    0x001be3         0x14 build/default/production/_ext/679848855/vmul.o
 .debug_abbrev    0x001bf7         0x14 build/default/production/_ext/679848855/vneg.o
 .debug_abbrev    0x001c0b         0x14 build/default/production/_ext/679848855/vpow.o
 .debug_abbrev    0x001c1f         0x14 build/default/production/_ext/679848855/vscl.o
 .debug_abbrev    0x001c33         0x14 build/default/production/_ext/679848855/vsub.o
 .debug_abbrev    0x001c47         0x14 build/default/production/_ext/679848855/vzpad.o
 .debug_abbrev    0x001c5b        0x259 build/default/production/_ext/1472/main.o

.debug_line       0x000000       0x5dcb
 *(.debug_line)
 .debug_line      0x000000        0x2e6 build/default/production/_ext/1077471063/estWind.o
 .debug_line      0x0002e6        0x1c7 build/default/production/_ext/1077471063/estYawDrift.o
 .debug_line      0x0004ad        0x624 build/default/production/_ext/1077471063/gpsParseCommon.o
 .debug_line      0x000ad1        0x43e build/default/production/_ext/1077471063/gpsParseSTD.o
 .debug_line      0x000f0f         0x24 build/default/production/_ext/1077471063/gpsParseUBX.o
 .debug_line      0x000f33        0x8ff build/default/production/_ext/1077471063/mathlibNAV.o
 .debug_line      0x001832        0x637 build/default/production/_ext/1077471063/rmat.o
 .debug_line      0x001e69        0x3a5 build/default/production/_ext/1077471063/libDCM.o
 .debug_line      0x00220e        0x356 build/default/production/_ext/1077471063/deadReckoning.o
 .debug_line      0x002564        0x17c build/default/production/_ext/1077471063/estAltitude.o
 .debug_line      0x0026e0         0x43 build/default/production/_ext/1077471063/fbcl.o
 .debug_line      0x002723         0x24 build/default/production/_ext/1077471063/gpsParseMTEK.o
 .debug_line      0x002747         0x24 build/default/production/_ext/1077471063/gpsParseNMEA.o
 .debug_line      0x00276b        0x400 build/default/production/_ext/1077454706/background.o
 .debug_line      0x002b6b        0x20f build/default/production/_ext/1077454706/libUDB.o
 .debug_line      0x002d7a         0x24 build/default/production/_ext/1077454706/analog2digital_udb4.o
 .debug_line      0x002d9e        0x319 build/default/production/_ext/1077454706/servoOut.o
 .debug_line      0x0030b7        0x2a4 build/default/production/_ext/1077454706/mpu6000.o
 .debug_line      0x00335b        0x3c7 build/default/production/_ext/1077454706/analog2digital_udb5.o
 .debug_line      0x003722        0x51a build/default/production/_ext/1077454706/eeprom_udb4.o
 .debug_line      0x003c3c         0x66 build/default/production/_ext/1077454706/traps_asm.o
 .debug_line      0x003ca2         0x86 build/default/production/_ext/1077454706/magnetometer.o
 .debug_line      0x003d28        0x209 build/default/production/_ext/1077454706/mcu.o
 .debug_line      0x003f31        0x30c build/default/production/_ext/1077454706/radioIn.o
 .debug_line      0x00423d        0x50c build/default/production/_ext/1077454706/serialIO.o
 .debug_line      0x004749        0x396 build/default/production/_ext/1077454706/mpu_spi.o
 .debug_line      0x004adf         0x72 build/default/production/_ext/1077454706/analogs.o
 .debug_line      0x004b51        0x1aa build/default/production/_ext/1077454706/heartbeat.o
 .debug_line      0x004cfb         0x69 build/default/production/_ext/679848855/madd.o
 .debug_line      0x004d64         0x83 build/default/production/_ext/679848855/mmul.o
 .debug_line      0x004de7         0x69 build/default/production/_ext/679848855/mscl.o
 .debug_line      0x004e50         0x6e build/default/production/_ext/679848855/msub.o
 .debug_line      0x004ebe         0x6b build/default/production/_ext/679848855/mtrp.o
 .debug_line      0x004f29         0x68 build/default/production/_ext/679848855/vadd.o
 .debug_line      0x004f91         0xc0 build/default/production/_ext/679848855/vcon.o
 .debug_line      0x005051         0x52 build/default/production/_ext/679848855/vcopy.o
 .debug_line      0x0050a3         0x61 build/default/production/_ext/679848855/vcor.o
 .debug_line      0x005104         0x68 build/default/production/_ext/679848855/vdot.o
 .debug_line      0x00516c         0x56 build/default/production/_ext/679848855/vmax.o
 .debug_line      0x0051c2         0x56 build/default/production/_ext/679848855/vmin.o
 .debug_line      0x005218         0x69 build/default/production/_ext/679848855/vmul.o
 .debug_line      0x005281         0x6b build/default/production/_ext/679848855/vneg.o
 .debug_line      0x0052ec         0x67 build/default/production/_ext/679848855/vpow.o
 .debug_line      0x005353         0x69 build/default/production/_ext/679848855/vscl.o
 .debug_line      0x0053bc         0x6d build/default/production/_ext/679848855/vsub.o
 .debug_line      0x005429         0x58 build/default/production/_ext/679848855/vzpad.o
 .debug_line      0x005481        0x94a build/default/production/_ext/1472/main.o

.debug_frame      0x000000        0xec0
 *(.debug_frame)
 .debug_frame     0x000000         0x24 build/default/production/_ext/1077471063/estWind.o
 .debug_frame     0x000024         0x34 build/default/production/_ext/1077471063/estYawDrift.o
 .debug_frame     0x000058         0xd4 build/default/production/_ext/1077471063/gpsParseCommon.o
 .debug_frame     0x00012c         0xe4 build/default/production/_ext/1077471063/gpsParseSTD.o
 .debug_frame     0x000210        0x144 build/default/production/_ext/1077471063/mathlibNAV.o
 .debug_frame     0x000354         0xc4 build/default/production/_ext/1077471063/rmat.o
 .debug_frame     0x000418         0x94 build/default/production/_ext/1077471063/libDCM.o
 .debug_frame     0x0004ac         0x24 build/default/production/_ext/1077471063/deadReckoning.o
 .debug_frame     0x0004d0         0x74 build/default/production/_ext/1077471063/estAltitude.o
 .debug_frame     0x000544         0xe4 build/default/production/_ext/1077454706/background.o
 .debug_frame     0x000628         0x54 build/default/production/_ext/1077454706/libUDB.o
 .debug_frame     0x00067c         0x54 build/default/production/_ext/1077454706/servoOut.o
 .debug_frame     0x0006d0         0xb4 build/default/production/_ext/1077454706/mpu6000.o
 .debug_frame     0x000784         0x34 build/default/production/_ext/1077454706/analog2digital_udb5.o
 .debug_frame     0x0007b8         0xd4 build/default/production/_ext/1077454706/eeprom_udb4.o
 .debug_frame     0x00088c         0x54 build/default/production/_ext/1077454706/mcu.o
 .debug_frame     0x0008e0         0xd4 build/default/production/_ext/1077454706/radioIn.o
 .debug_frame     0x0009b4         0xd4 build/default/production/_ext/1077454706/serialIO.o
 .debug_frame     0x000a88         0x74 build/default/production/_ext/1077454706/mpu_spi.o
 .debug_frame     0x000afc         0x34 build/default/production/_ext/1077454706/analogs.o
 .debug_frame     0x000b30         0x54 build/default/production/_ext/1077454706/heartbeat.o
 .debug_frame     0x000b84        0x33c build/default/production/_ext/1472/main.o

.debug_str        0x000000        0xe70
 *(.debug_str)
 .debug_str       0x000000         0x24 build/default/production/_ext/1077471063/estWind.o
 .debug_str       0x000024         0x5b build/default/production/_ext/1077471063/estYawDrift.o
 .debug_str       0x00007f        0x166 build/default/production/_ext/1077471063/gpsParseCommon.o
 .debug_str       0x0001e5         0xd8 build/default/production/_ext/1077471063/gpsParseSTD.o
 .debug_str       0x0002bd         0x6d build/default/production/_ext/1077471063/mathlibNAV.o
 .debug_str       0x00032a         0xbd build/default/production/_ext/1077471063/rmat.o
 .debug_str       0x0003e7         0x41 build/default/production/_ext/1077471063/libDCM.o
 .debug_str       0x000428        0x13e build/default/production/_ext/1077471063/deadReckoning.o
 .debug_str       0x000566         0xa2 build/default/production/_ext/1077471063/estAltitude.o
 .debug_str       0x000608         0x99 build/default/production/_ext/1077454706/background.o
 .debug_str       0x0006a1         0x53 build/default/production/_ext/1077454706/libUDB.o
 .debug_str       0x0006f4         0x5f build/default/production/_ext/1077454706/servoOut.o
 .debug_str       0x000753         0x9b build/default/production/_ext/1077454706/mpu6000.o
 .debug_str       0x0007ee        0x100 build/default/production/_ext/1077454706/analog2digital_udb5.o
 .debug_str       0x0008ee         0x2a build/default/production/_ext/1077454706/eeprom_udb4.o
 .debug_str       0x000918         0x70 build/default/production/_ext/1077454706/mcu.o
 .debug_str       0x000988        0x136 build/default/production/_ext/1077454706/radioIn.o
 .debug_str       0x000abe         0xa5 build/default/production/_ext/1077454706/serialIO.o
 .debug_str       0x000b63         0x53 build/default/production/_ext/1077454706/mpu_spi.o
 .debug_str       0x000bb6         0x38 build/default/production/_ext/1077454706/heartbeat.o
 .debug_str       0x000bee        0x282 build/default/production/_ext/1472/main.o

.debug_loc
 *(.debug_loc)

.debug_macinfo
 *(.debug_macinfo)

.debug_pubnames
                  0x000000       0x18a0
 *(.debug_pubnames)
 .debug_pubnames
                  0x000000         0x35 build/default/production/_ext/1077471063/estWind.o
 .debug_pubnames
                  0x000035         0x46 build/default/production/_ext/1077471063/estYawDrift.o
 .debug_pubnames
                  0x00007b        0x333 build/default/production/_ext/1077471063/gpsParseCommon.o
 .debug_pubnames
                  0x0003ae        0x16a build/default/production/_ext/1077471063/gpsParseSTD.o
 .debug_pubnames
                  0x000518        0x18a build/default/production/_ext/1077471063/mathlibNAV.o
 .debug_pubnames
                  0x0006a2        0x12b build/default/production/_ext/1077471063/rmat.o
 .debug_pubnames
                  0x0007cd         0xcc build/default/production/_ext/1077471063/libDCM.o
 .debug_pubnames
                  0x000899        0x161 build/default/production/_ext/1077471063/deadReckoning.o
 .debug_pubnames
                  0x0009fa        0x160 build/default/production/_ext/1077471063/estAltitude.o
 .debug_pubnames
                  0x000b5a         0xdb build/default/production/_ext/1077454706/background.o
 .debug_pubnames
                  0x000c35         0x6b build/default/production/_ext/1077454706/libUDB.o
 .debug_pubnames
                  0x000ca0         0x71 build/default/production/_ext/1077454706/servoOut.o
 .debug_pubnames
                  0x000d11        0x104 build/default/production/_ext/1077454706/mpu6000.o
 .debug_pubnames
                  0x000e15         0xa6 build/default/production/_ext/1077454706/analog2digital_udb5.o
 .debug_pubnames
                  0x000ebb         0x7e build/default/production/_ext/1077454706/eeprom_udb4.o
 .debug_pubnames
                  0x000f39         0x8c build/default/production/_ext/1077454706/magnetometer.o
 .debug_pubnames
                  0x000fc5         0xda build/default/production/_ext/1077454706/mcu.o
 .debug_pubnames
                  0x00109f        0x112 build/default/production/_ext/1077454706/radioIn.o
 .debug_pubnames
                  0x0011b1        0x121 build/default/production/_ext/1077454706/serialIO.o
 .debug_pubnames
                  0x0012d2         0x7e build/default/production/_ext/1077454706/mpu_spi.o
 .debug_pubnames
                  0x001350         0x46 build/default/production/_ext/1077454706/analogs.o
 .debug_pubnames
                  0x001396         0x71 build/default/production/_ext/1077454706/heartbeat.o
 .debug_pubnames
                  0x001407        0x499 build/default/production/_ext/1472/main.o

.debug_ranges
 *(.debug_ranges)

.debug_aranges    0x000000        0x3f0
 *(.debug_aranges)
 .debug_aranges
                  0x000000         0x18 build/default/production/_ext/1077471063/estWind.o
 .debug_aranges
                  0x000018         0x18 build/default/production/_ext/1077471063/estYawDrift.o
 .debug_aranges
                  0x000030         0x18 build/default/production/_ext/1077471063/gpsParseCommon.o
 .debug_aranges
                  0x000048         0x18 build/default/production/_ext/1077471063/gpsParseSTD.o
 .debug_aranges
                  0x000060         0x18 build/default/production/_ext/1077471063/mathlibNAV.o
 .debug_aranges
                  0x000078         0x18 build/default/production/_ext/1077471063/rmat.o
 .debug_aranges
                  0x000090         0x18 build/default/production/_ext/1077471063/libDCM.o
 .debug_aranges
                  0x0000a8         0x18 build/default/production/_ext/1077471063/deadReckoning.o
 .debug_aranges
                  0x0000c0         0x18 build/default/production/_ext/1077471063/estAltitude.o
 .debug_aranges
                  0x0000d8         0x18 build/default/production/_ext/1077471063/fbcl.o
 .debug_aranges
                  0x0000f0         0x18 build/default/production/_ext/1077454706/background.o
 .debug_aranges
                  0x000108         0x18 build/default/production/_ext/1077454706/libUDB.o
 .debug_aranges
                  0x000120         0x18 build/default/production/_ext/1077454706/servoOut.o
 .debug_aranges
                  0x000138         0x18 build/default/production/_ext/1077454706/mpu6000.o
 .debug_aranges
                  0x000150         0x18 build/default/production/_ext/1077454706/analog2digital_udb5.o
 .debug_aranges
                  0x000168         0x18 build/default/production/_ext/1077454706/eeprom_udb4.o
 .debug_aranges
                  0x000180         0x18 build/default/production/_ext/1077454706/traps_asm.o
 .debug_aranges
                  0x000198         0x18 build/default/production/_ext/1077454706/mcu.o
 .debug_aranges
                  0x0001b0         0x18 build/default/production/_ext/1077454706/radioIn.o
 .debug_aranges
                  0x0001c8         0x18 build/default/production/_ext/1077454706/serialIO.o
 .debug_aranges
                  0x0001e0         0x18 build/default/production/_ext/1077454706/mpu_spi.o
 .debug_aranges
                  0x0001f8         0x18 build/default/production/_ext/1077454706/analogs.o
 .debug_aranges
                  0x000210         0x18 build/default/production/_ext/1077454706/heartbeat.o
 .debug_aranges
                  0x000228         0x18 build/default/production/_ext/679848855/madd.o
 .debug_aranges
                  0x000240         0x18 build/default/production/_ext/679848855/mmul.o
 .debug_aranges
                  0x000258         0x18 build/default/production/_ext/679848855/mscl.o
 .debug_aranges
                  0x000270         0x18 build/default/production/_ext/679848855/msub.o
 .debug_aranges
                  0x000288         0x18 build/default/production/_ext/679848855/mtrp.o
 .debug_aranges
                  0x0002a0         0x18 build/default/production/_ext/679848855/vadd.o
 .debug_aranges
                  0x0002b8         0x18 build/default/production/_ext/679848855/vcon.o
 .debug_aranges
                  0x0002d0         0x18 build/default/production/_ext/679848855/vcopy.o
 .debug_aranges
                  0x0002e8         0x18 build/default/production/_ext/679848855/vcor.o
 .debug_aranges
                  0x000300         0x18 build/default/production/_ext/679848855/vdot.o
 .debug_aranges
                  0x000318         0x18 build/default/production/_ext/679848855/vmax.o
 .debug_aranges
                  0x000330         0x18 build/default/production/_ext/679848855/vmin.o
 .debug_aranges
                  0x000348         0x18 build/default/production/_ext/679848855/vmul.o
 .debug_aranges
                  0x000360         0x18 build/default/production/_ext/679848855/vneg.o
 .debug_aranges
                  0x000378         0x18 build/default/production/_ext/679848855/vpow.o
 .debug_aranges
                  0x000390         0x18 build/default/production/_ext/679848855/vscl.o
 .debug_aranges
                  0x0003a8         0x18 build/default/production/_ext/679848855/vsub.o
 .debug_aranges
                  0x0003c0         0x18 build/default/production/_ext/679848855/vzpad.o
 .debug_aranges
                  0x0003d8         0x18 build/default/production/_ext/1472/main.o

.ivt              0x000004         0xfc
                  0x000004          0x4 LONG 0x2d0 DEFINED (__ReservedTrap0)?ABSOLUTE (__ReservedTrap0):ABSOLUTE (__DefaultInterrupt)
                  0x000006          0x4 LONG 0x2d0 DEFINED (__OscillatorFail)?ABSOLUTE (__OscillatorFail):ABSOLUTE (__DefaultInterrupt)
                  0x000008          0x4 LONG 0x2d0 DEFINED (__AddressError)?ABSOLUTE (__AddressError):ABSOLUTE (__DefaultInterrupt)
                  0x00000a          0x4 LONG 0x2d0 DEFINED (__StackError)?ABSOLUTE (__StackError):ABSOLUTE (__DefaultInterrupt)
                  0x00000c          0x4 LONG 0x2d0 DEFINED (__MathError)?ABSOLUTE (__MathError):ABSOLUTE (__DefaultInterrupt)
                  0x00000e          0x4 LONG 0x2d0 DEFINED (__DMACError)?ABSOLUTE (__DMACError):ABSOLUTE (__DefaultInterrupt)
                  0x000010          0x4 LONG 0x2d0 DEFINED (__ReservedTrap6)?ABSOLUTE (__ReservedTrap6):ABSOLUTE (__DefaultInterrupt)
                  0x000012          0x4 LONG 0x2d0 DEFINED (__ReservedTrap7)?ABSOLUTE (__ReservedTrap7):ABSOLUTE (__DefaultInterrupt)
                  0x000014          0x4 LONG 0x2d0 DEFINED (__INT0Interrupt)?ABSOLUTE (__INT0Interrupt):ABSOLUTE (__DefaultInterrupt)
                  0x000016          0x4 LONG 0x49d0 DEFINED (__IC1Interrupt)?ABSOLUTE (__IC1Interrupt):ABSOLUTE (__DefaultInterrupt)
                  0x000018          0x4 LONG 0x2d0 DEFINED (__OC1Interrupt)?ABSOLUTE (__OC1Interrupt):ABSOLUTE (__DefaultInterrupt)
                  0x00001a          0x4 LONG 0x6274 DEFINED (__T1Interrupt)?ABSOLUTE (__T1Interrupt):ABSOLUTE (__DefaultInterrupt)
                  0x00001c          0x4 LONG 0x5724 DEFINED (__DMA0Interrupt)?ABSOLUTE (__DMA0Interrupt):ABSOLUTE (__DefaultInterrupt)
                  0x00001e          0x4 LONG 0x4a20 DEFINED (__IC2Interrupt)?ABSOLUTE (__IC2Interrupt):ABSOLUTE (__DefaultInterrupt)
                  0x000020          0x4 LONG 0x2d0 DEFINED (__OC2Interrupt)?ABSOLUTE (__OC2Interrupt):ABSOLUTE (__DefaultInterrupt)
                  0x000022          0x4 LONG 0x2d0 DEFINED (__T2Interrupt)?ABSOLUTE (__T2Interrupt):ABSOLUTE (__DefaultInterrupt)
                  0x000024          0x4 LONG 0x2d0 DEFINED (__T3Interrupt)?ABSOLUTE (__T3Interrupt):ABSOLUTE (__DefaultInterrupt)
                  0x000026          0x4 LONG 0x2d0 DEFINED (__SPI1ErrInterrupt)?ABSOLUTE (__SPI1ErrInterrupt):ABSOLUTE (__DefaultInterrupt)
                  0x000028          0x4 LONG 0x2d0 DEFINED (__SPI1Interrupt)?ABSOLUTE (__SPI1Interrupt):ABSOLUTE (__DefaultInterrupt)
                  0x00002a          0x4 LONG 0x54e8 DEFINED (__U1RXInterrupt)?ABSOLUTE (__U1RXInterrupt):ABSOLUTE (__DefaultInterrupt)
                  0x00002c          0x4 LONG 0x54b0 DEFINED (__U1TXInterrupt)?ABSOLUTE (__U1TXInterrupt):ABSOLUTE (__DefaultInterrupt)
                  0x00002e          0x4 LONG 0x2d0 DEFINED (__ADC1Interrupt)?ABSOLUTE (__ADC1Interrupt):ABSOLUTE (__DefaultInterrupt)
                  0x000030          0x4 LONG 0x2d0 DEFINED (__DMA1Interrupt)?ABSOLUTE (__DMA1Interrupt):ABSOLUTE (__DefaultInterrupt)
                  0x000032          0x4 LONG 0x2d0 DEFINED (__Interrupt15)?ABSOLUTE (__Interrupt15):ABSOLUTE (__DefaultInterrupt)
                  0x000034          0x4 LONG 0x2d0 DEFINED (__SI2C1Interrupt)?ABSOLUTE (__SI2C1Interrupt):ABSOLUTE (__DefaultInterrupt)
                  0x000036          0x4 LONG 0x2d0 DEFINED (__MI2C1Interrupt)?ABSOLUTE (__MI2C1Interrupt):ABSOLUTE (__DefaultInterrupt)
                  0x000038          0x4 LONG 0x2d0 DEFINED (__Interrupt18)?ABSOLUTE (__Interrupt18):ABSOLUTE (__DefaultInterrupt)
                  0x00003a          0x4 LONG 0x2d0 DEFINED (__CNInterrupt)?ABSOLUTE (__CNInterrupt):ABSOLUTE (__DefaultInterrupt)
                  0x00003c          0x4 LONG 0x2d0 DEFINED (__INT1Interrupt)?ABSOLUTE (__INT1Interrupt):ABSOLUTE (__DefaultInterrupt)
                  0x00003e          0x4 LONG 0x2d0 DEFINED (__ADC2Interrupt)?ABSOLUTE (__ADC2Interrupt):ABSOLUTE (__DefaultInterrupt)
                  0x000040          0x4 LONG 0x4bb0 DEFINED (__IC7Interrupt)?ABSOLUTE (__IC7Interrupt):ABSOLUTE (__DefaultInterrupt)
                  0x000042          0x4 LONG 0x2d0 DEFINED (__IC8Interrupt)?ABSOLUTE (__IC8Interrupt):ABSOLUTE (__DefaultInterrupt)
                  0x000044          0x4 LONG 0x2d0 DEFINED (__DMA2Interrupt)?ABSOLUTE (__DMA2Interrupt):ABSOLUTE (__DefaultInterrupt)
                  0x000046          0x4 LONG 0x2d0 DEFINED (__OC3Interrupt)?ABSOLUTE (__OC3Interrupt):ABSOLUTE (__DefaultInterrupt)
                  0x000048          0x4 LONG 0x2d0 DEFINED (__OC4Interrupt)?ABSOLUTE (__OC4Interrupt):ABSOLUTE (__DefaultInterrupt)
                  0x00004a          0x4 LONG 0x5d02 DEFINED (__T4Interrupt)?ABSOLUTE (__T4Interrupt):ABSOLUTE (__DefaultInterrupt)
                  0x00004c          0x4 LONG 0x629c DEFINED (__T5Interrupt)?ABSOLUTE (__T5Interrupt):ABSOLUTE (__DefaultInterrupt)
                  0x00004e          0x4 LONG 0x2d0 DEFINED (__INT2Interrupt)?ABSOLUTE (__INT2Interrupt):ABSOLUTE (__DefaultInterrupt)
                  0x000050          0x4 LONG 0x561c DEFINED (__U2RXInterrupt)?ABSOLUTE (__U2RXInterrupt):ABSOLUTE (__DefaultInterrupt)
                  0x000052          0x4 LONG 0x55e4 DEFINED (__U2TXInterrupt)?ABSOLUTE (__U2TXInterrupt):ABSOLUTE (__DefaultInterrupt)
                  0x000054          0x4 LONG 0x2d0 DEFINED (__SPI2ErrInterrupt)?ABSOLUTE (__SPI2ErrInterrupt):ABSOLUTE (__DefaultInterrupt)
                  0x000056          0x4 LONG 0x60d8 DEFINED (__SPI2Interrupt)?ABSOLUTE (__SPI2Interrupt):ABSOLUTE (__DefaultInterrupt)
                  0x000058          0x4 LONG 0x2d0 DEFINED (__C1RxRdyInterrupt)?ABSOLUTE (__C1RxRdyInterrupt):ABSOLUTE (__DefaultInterrupt)
                  0x00005a          0x4 LONG 0x2d0 DEFINED (__C1Interrupt)?ABSOLUTE (__C1Interrupt):ABSOLUTE (__DefaultInterrupt)
                  0x00005c          0x4 LONG 0x2d0 DEFINED (__DMA3Interrupt)?ABSOLUTE (__DMA3Interrupt):ABSOLUTE (__DefaultInterrupt)
                  0x00005e          0x4 LONG 0x4a70 DEFINED (__IC3Interrupt)?ABSOLUTE (__IC3Interrupt):ABSOLUTE (__DefaultInterrupt)
                  0x000060          0x4 LONG 0x4ac0 DEFINED (__IC4Interrupt)?ABSOLUTE (__IC4Interrupt):ABSOLUTE (__DefaultInterrupt)
                  0x000062          0x4 LONG 0x4b10 DEFINED (__IC5Interrupt)?ABSOLUTE (__IC5Interrupt):ABSOLUTE (__DefaultInterrupt)
                  0x000064          0x4 LONG 0x4b60 DEFINED (__IC6Interrupt)?ABSOLUTE (__IC6Interrupt):ABSOLUTE (__DefaultInterrupt)
                  0x000066          0x4 LONG 0x2d0 DEFINED (__OC5Interrupt)?ABSOLUTE (__OC5Interrupt):ABSOLUTE (__DefaultInterrupt)
                  0x000068          0x4 LONG 0x2d0 DEFINED (__OC6Interrupt)?ABSOLUTE (__OC6Interrupt):ABSOLUTE (__DefaultInterrupt)
                  0x00006a          0x4 LONG 0x2d0 DEFINED (__OC7Interrupt)?ABSOLUTE (__OC7Interrupt):ABSOLUTE (__DefaultInterrupt)
                  0x00006c          0x4 LONG 0x2d0 DEFINED (__OC8Interrupt)?ABSOLUTE (__OC8Interrupt):ABSOLUTE (__DefaultInterrupt)
                  0x00006e          0x4 LONG 0x2d0 DEFINED (__Interrupt45)?ABSOLUTE (__Interrupt45):ABSOLUTE (__DefaultInterrupt)
                  0x000070          0x4 LONG 0x2d0 DEFINED (__DMA4Interrupt)?ABSOLUTE (__DMA4Interrupt):ABSOLUTE (__DefaultInterrupt)
                  0x000072          0x4 LONG 0x62ba DEFINED (__T6Interrupt)?ABSOLUTE (__T6Interrupt):ABSOLUTE (__DefaultInterrupt)
                  0x000074          0x4 LONG 0x62f8 DEFINED (__T7Interrupt)?ABSOLUTE (__T7Interrupt):ABSOLUTE (__DefaultInterrupt)
                  0x000076          0x4 LONG 0x2d0 DEFINED (__SI2C2Interrupt)?ABSOLUTE (__SI2C2Interrupt):ABSOLUTE (__DefaultInterrupt)
                  0x000078          0x4 LONG 0x2d0 DEFINED (__MI2C2Interrupt)?ABSOLUTE (__MI2C2Interrupt):ABSOLUTE (__DefaultInterrupt)
                  0x00007a          0x4 LONG 0x2d0 DEFINED (__T8Interrupt)?ABSOLUTE (__T8Interrupt):ABSOLUTE (__DefaultInterrupt)
                  0x00007c          0x4 LONG 0x2d0 DEFINED (__T9Interrupt)?ABSOLUTE (__T9Interrupt):ABSOLUTE (__DefaultInterrupt)
                  0x00007e          0x4 LONG 0x64de DEFINED (__INT3Interrupt)?ABSOLUTE (__INT3Interrupt):ABSOLUTE (__DefaultInterrupt)
                  0x000080          0x4 LONG 0x2d0 DEFINED (__INT4Interrupt)?ABSOLUTE (__INT4Interrupt):ABSOLUTE (__DefaultInterrupt)
                  0x000082          0x4 LONG 0x2d0 DEFINED (__C2RxRdyInterrupt)?ABSOLUTE (__C2RxRdyInterrupt):ABSOLUTE (__DefaultInterrupt)
                  0x000084          0x4 LONG 0x2d0 DEFINED (__C2Interrupt)?ABSOLUTE (__C2Interrupt):ABSOLUTE (__DefaultInterrupt)
                  0x000086          0x4 LONG 0x2d0 DEFINED (__Interrupt57)?ABSOLUTE (__Interrupt57):ABSOLUTE (__DefaultInterrupt)
                  0x000088          0x4 LONG 0x2d0 DEFINED (__Interrupt58)?ABSOLUTE (__Interrupt58):ABSOLUTE (__DefaultInterrupt)
                  0x00008a          0x4 LONG 0x2d0 DEFINED (__DCIErrInterrupt)?ABSOLUTE (__DCIErrInterrupt):ABSOLUTE (__DefaultInterrupt)
                  0x00008c          0x4 LONG 0x2d0 DEFINED (__DCIInterrupt)?ABSOLUTE (__DCIInterrupt):ABSOLUTE (__DefaultInterrupt)
                  0x00008e          0x4 LONG 0x2d0 DEFINED (__DMA5Interrupt)?ABSOLUTE (__DMA5Interrupt):ABSOLUTE (__DefaultInterrupt)
                  0x000090          0x4 LONG 0x2d0 DEFINED (__Interrupt62)?ABSOLUTE (__Interrupt62):ABSOLUTE (__DefaultInterrupt)
                  0x000092          0x4 LONG 0x2d0 DEFINED (__Interrupt63)?ABSOLUTE (__Interrupt63):ABSOLUTE (__DefaultInterrupt)
                  0x000094          0x4 LONG 0x2d0 DEFINED (__Interrupt64)?ABSOLUTE (__Interrupt64):ABSOLUTE (__DefaultInterrupt)
                  0x000096          0x4 LONG 0x2d0 DEFINED (__U1ErrInterrupt)?ABSOLUTE (__U1ErrInterrupt):ABSOLUTE (__DefaultInterrupt)
                  0x000098          0x4 LONG 0x2d0 DEFINED (__U2ErrInterrupt)?ABSOLUTE (__U2ErrInterrupt):ABSOLUTE (__DefaultInterrupt)
                  0x00009a          0x4 LONG 0x2d0 DEFINED (__Interrupt67)?ABSOLUTE (__Interrupt67):ABSOLUTE (__DefaultInterrupt)
                  0x00009c          0x4 LONG 0x2d0 DEFINED (__DMA6Interrupt)?ABSOLUTE (__DMA6Interrupt):ABSOLUTE (__DefaultInterrupt)
                  0x00009e          0x4 LONG 0x2d0 DEFINED (__DMA7Interrupt)?ABSOLUTE (__DMA7Interrupt):ABSOLUTE (__DefaultInterrupt)
                  0x0000a0          0x4 LONG 0x2d0 DEFINED (__C1TxReqInterrupt)?ABSOLUTE (__C1TxReqInterrupt):ABSOLUTE (__DefaultInterrupt)
                  0x0000a2          0x4 LONG 0x2d0 DEFINED (__C2TxReqInterrupt)?ABSOLUTE (__C2TxReqInterrupt):ABSOLUTE (__DefaultInterrupt)
                  0x0000a4          0x4 LONG 0x2d0 DEFINED (__Interrupt72)?ABSOLUTE (__Interrupt72):ABSOLUTE (__DefaultInterrupt)
                  0x0000a6          0x4 LONG 0x2d0 DEFINED (__Interrupt73)?ABSOLUTE (__Interrupt73):ABSOLUTE (__DefaultInterrupt)
                  0x0000a8          0x4 LONG 0x2d0 DEFINED (__Interrupt74)?ABSOLUTE (__Interrupt74):ABSOLUTE (__DefaultInterrupt)
                  0x0000aa          0x4 LONG 0x2d0 DEFINED (__Interrupt75)?ABSOLUTE (__Interrupt75):ABSOLUTE (__DefaultInterrupt)
                  0x0000ac          0x4 LONG 0x2d0 DEFINED (__Interrupt76)?ABSOLUTE (__Interrupt76):ABSOLUTE (__DefaultInterrupt)
                  0x0000ae          0x4 LONG 0x2d0 DEFINED (__Interrupt77)?ABSOLUTE (__Interrupt77):ABSOLUTE (__DefaultInterrupt)
                  0x0000b0          0x4 LONG 0x2d0 DEFINED (__Interrupt78)?ABSOLUTE (__Interrupt78):ABSOLUTE (__DefaultInterrupt)
                  0x0000b2          0x4 LONG 0x2d0 DEFINED (__Interrupt79)?ABSOLUTE (__Interrupt79):ABSOLUTE (__DefaultInterrupt)
                  0x0000b4          0x4 LONG 0x2d0 DEFINED (__Interrupt80)?ABSOLUTE (__Interrupt80):ABSOLUTE (__DefaultInterrupt)
                  0x0000b6          0x4 LONG 0x2d0 DEFINED (__Interrupt81)?ABSOLUTE (__Interrupt81):ABSOLUTE (__DefaultInterrupt)
                  0x0000b8          0x4 LONG 0x2d0 DEFINED (__Interrupt82)?ABSOLUTE (__Interrupt82):ABSOLUTE (__DefaultInterrupt)
                  0x0000ba          0x4 LONG 0x2d0 DEFINED (__Interrupt83)?ABSOLUTE (__Interrupt83):ABSOLUTE (__DefaultInterrupt)
                  0x0000bc          0x4 LONG 0x2d0 DEFINED (__Interrupt84)?ABSOLUTE (__Interrupt84):ABSOLUTE (__DefaultInterrupt)
                  0x0000be          0x4 LONG 0x2d0 DEFINED (__Interrupt85)?ABSOLUTE (__Interrupt85):ABSOLUTE (__DefaultInterrupt)
                  0x0000c0          0x4 LONG 0x2d0 DEFINED (__Interrupt86)?ABSOLUTE (__Interrupt86):ABSOLUTE (__DefaultInterrupt)
                  0x0000c2          0x4 LONG 0x2d0 DEFINED (__Interrupt87)?ABSOLUTE (__Interrupt87):ABSOLUTE (__DefaultInterrupt)
                  0x0000c4          0x4 LONG 0x2d0 DEFINED (__Interrupt88)?ABSOLUTE (__Interrupt88):ABSOLUTE (__DefaultInterrupt)
                  0x0000c6          0x4 LONG 0x2d0 DEFINED (__Interrupt89)?ABSOLUTE (__Interrupt89):ABSOLUTE (__DefaultInterrupt)
                  0x0000c8          0x4 LONG 0x2d0 DEFINED (__Interrupt90)?ABSOLUTE (__Interrupt90):ABSOLUTE (__DefaultInterrupt)
                  0x0000ca          0x4 LONG 0x2d0 DEFINED (__Interrupt91)?ABSOLUTE (__Interrupt91):ABSOLUTE (__DefaultInterrupt)
                  0x0000cc          0x4 LONG 0x2d0 DEFINED (__Interrupt92)?ABSOLUTE (__Interrupt92):ABSOLUTE (__DefaultInterrupt)
                  0x0000ce          0x4 LONG 0x2d0 DEFINED (__Interrupt93)?ABSOLUTE (__Interrupt93):ABSOLUTE (__DefaultInterrupt)
                  0x0000d0          0x4 LONG 0x2d0 DEFINED (__Interrupt94)?ABSOLUTE (__Interrupt94):ABSOLUTE (__DefaultInterrupt)
                  0x0000d2          0x4 LONG 0x2d0 DEFINED (__Interrupt95)?ABSOLUTE (__Interrupt95):ABSOLUTE (__DefaultInterrupt)
                  0x0000d4          0x4 LONG 0x2d0 DEFINED (__Interrupt96)?ABSOLUTE (__Interrupt96):ABSOLUTE (__DefaultInterrupt)
                  0x0000d6          0x4 LONG 0x2d0 DEFINED (__Interrupt97)?ABSOLUTE (__Interrupt97):ABSOLUTE (__DefaultInterrupt)
                  0x0000d8          0x4 LONG 0x2d0 DEFINED (__Interrupt98)?ABSOLUTE (__Interrupt98):ABSOLUTE (__DefaultInterrupt)
                  0x0000da          0x4 LONG 0x2d0 DEFINED (__Interrupt99)?ABSOLUTE (__Interrupt99):ABSOLUTE (__DefaultInterrupt)
                  0x0000dc          0x4 LONG 0x2d0 DEFINED (__Interrupt100)?ABSOLUTE (__Interrupt100):ABSOLUTE (__DefaultInterrupt)
                  0x0000de          0x4 LONG 0x2d0 DEFINED (__Interrupt101)?ABSOLUTE (__Interrupt101):ABSOLUTE (__DefaultInterrupt)
                  0x0000e0          0x4 LONG 0x2d0 DEFINED (__Interrupt102)?ABSOLUTE (__Interrupt102):ABSOLUTE (__DefaultInterrupt)
                  0x0000e2          0x4 LONG 0x2d0 DEFINED (__Interrupt103)?ABSOLUTE (__Interrupt103):ABSOLUTE (__DefaultInterrupt)
                  0x0000e4          0x4 LONG 0x2d0 DEFINED (__Interrupt104)?ABSOLUTE (__Interrupt104):ABSOLUTE (__DefaultInterrupt)
                  0x0000e6          0x4 LONG 0x2d0 DEFINED (__Interrupt105)?ABSOLUTE (__Interrupt105):ABSOLUTE (__DefaultInterrupt)
                  0x0000e8          0x4 LONG 0x2d0 DEFINED (__Interrupt106)?ABSOLUTE (__Interrupt106):ABSOLUTE (__DefaultInterrupt)
                  0x0000ea          0x4 LONG 0x2d0 DEFINED (__Interrupt107)?ABSOLUTE (__Interrupt107):ABSOLUTE (__DefaultInterrupt)
                  0x0000ec          0x4 LONG 0x2d0 DEFINED (__Interrupt108)?ABSOLUTE (__Interrupt108):ABSOLUTE (__DefaultInterrupt)
                  0x0000ee          0x4 LONG 0x2d0 DEFINED (__Interrupt109)?ABSOLUTE (__Interrupt109):ABSOLUTE (__DefaultInterrupt)
                  0x0000f0          0x4 LONG 0x2d0 DEFINED (__Interrupt110)?ABSOLUTE (__Interrupt110):ABSOLUTE (__DefaultInterrupt)
                  0x0000f2          0x4 LONG 0x2d0 DEFINED (__Interrupt111)?ABSOLUTE (__Interrupt111):ABSOLUTE (__DefaultInterrupt)
                  0x0000f4          0x4 LONG 0x2d0 DEFINED (__Interrupt112)?ABSOLUTE (__Interrupt112):ABSOLUTE (__DefaultInterrupt)
                  0x0000f6          0x4 LONG 0x2d0 DEFINED (__Interrupt113)?ABSOLUTE (__Interrupt113):ABSOLUTE (__DefaultInterrupt)
                  0x0000f8          0x4 LONG 0x2d0 DEFINED (__Interrupt114)?ABSOLUTE (__Interrupt114):ABSOLUTE (__DefaultInterrupt)
                  0x0000fa          0x4 LONG 0x2d0 DEFINED (__Interrupt115)?ABSOLUTE (__Interrupt115):ABSOLUTE (__DefaultInterrupt)
                  0x0000fc          0x4 LONG 0x2d0 DEFINED (__Interrupt116)?ABSOLUTE (__Interrupt116):ABSOLUTE (__DefaultInterrupt)
                  0x0000fe          0x4 LONG 0x2d0 DEFINED (__Interrupt117)?ABSOLUTE (__Interrupt117):ABSOLUTE (__DefaultInterrupt)

.aivt             0x000104         0xfc
                  0x000104          0x4 LONG 0x2d0 DEFINED (__AltReservedTrap0)?ABSOLUTE (__AltReservedTrap0):DEFINED (__ReservedTrap0)?ABSOLUTE (__ReservedTrap0):ABSOLUTE (__DefaultInterrupt)
                  0x000106          0x4 LONG 0x2d0 DEFINED (__AltOscillatorFail)?ABSOLUTE (__AltOscillatorFail):DEFINED (__OscillatorFail)?ABSOLUTE (__OscillatorFail):ABSOLUTE (__DefaultInterrupt)
                  0x000108          0x4 LONG 0x2d0 DEFINED (__AltAddressError)?ABSOLUTE (__AltAddressError):DEFINED (__AddressError)?ABSOLUTE (__AddressError):ABSOLUTE (__DefaultInterrupt)
                  0x00010a          0x4 LONG 0x2d0 DEFINED (__AltStackError)?ABSOLUTE (__AltStackError):DEFINED (__StackError)?ABSOLUTE (__StackError):ABSOLUTE (__DefaultInterrupt)
                  0x00010c          0x4 LONG 0x2d0 DEFINED (__AltMathError)?ABSOLUTE (__AltMathError):DEFINED (__MathError)?ABSOLUTE (__MathError):ABSOLUTE (__DefaultInterrupt)
                  0x00010e          0x4 LONG 0x2d0 DEFINED (__AltDMACError)?ABSOLUTE (__AltDMACError):DEFINED (__DMACError)?ABSOLUTE (__DMACError):ABSOLUTE (__DefaultInterrupt)
                  0x000110          0x4 LONG 0x2d0 DEFINED (__AltReservedTrap6)?ABSOLUTE (__AltReservedTrap6):DEFINED (__ReservedTrap6)?ABSOLUTE (__ReservedTrap6):ABSOLUTE (__DefaultInterrupt)
                  0x000112          0x4 LONG 0x2d0 DEFINED (__AltReservedTrap7)?ABSOLUTE (__AltReservedTrap7):DEFINED (__ReservedTrap7)?ABSOLUTE (__ReservedTrap7):ABSOLUTE (__DefaultInterrupt)
                  0x000114          0x4 LONG 0x2d0 DEFINED (__AltINT0Interrupt)?ABSOLUTE (__AltINT0Interrupt):DEFINED (__INT0Interrupt)?ABSOLUTE (__INT0Interrupt):ABSOLUTE (__DefaultInterrupt)
                  0x000116          0x4 LONG 0x49d0 DEFINED (__AltIC1Interrupt)?ABSOLUTE (__AltIC1Interrupt):DEFINED (__IC1Interrupt)?ABSOLUTE (__IC1Interrupt):ABSOLUTE (__DefaultInterrupt)
                  0x000118          0x4 LONG 0x2d0 DEFINED (__AltOC1Interrupt)?ABSOLUTE (__AltOC1Interrupt):DEFINED (__OC1Interrupt)?ABSOLUTE (__OC1Interrupt):ABSOLUTE (__DefaultInterrupt)
                  0x00011a          0x4 LONG 0x6274 DEFINED (__AltT1Interrupt)?ABSOLUTE (__AltT1Interrupt):DEFINED (__T1Interrupt)?ABSOLUTE (__T1Interrupt):ABSOLUTE (__DefaultInterrupt)
                  0x00011c          0x4 LONG 0x5724 DEFINED (__AltDMA0Interrupt)?ABSOLUTE (__AltDMA0Interrupt):DEFINED (__DMA0Interrupt)?ABSOLUTE (__DMA0Interrupt):ABSOLUTE (__DefaultInterrupt)
                  0x00011e          0x4 LONG 0x4a20 DEFINED (__AltIC2Interrupt)?ABSOLUTE (__AltIC2Interrupt):DEFINED (__IC2Interrupt)?ABSOLUTE (__IC2Interrupt):ABSOLUTE (__DefaultInterrupt)
                  0x000120          0x4 LONG 0x2d0 DEFINED (__AltOC2Interrupt)?ABSOLUTE (__AltOC2Interrupt):DEFINED (__OC2Interrupt)?ABSOLUTE (__OC2Interrupt):ABSOLUTE (__DefaultInterrupt)
                  0x000122          0x4 LONG 0x2d0 DEFINED (__AltT2Interrupt)?ABSOLUTE (__AltT2Interrupt):DEFINED (__T2Interrupt)?ABSOLUTE (__T2Interrupt):ABSOLUTE (__DefaultInterrupt)
                  0x000124          0x4 LONG 0x2d0 DEFINED (__AltT3Interrupt)?ABSOLUTE (__AltT3Interrupt):DEFINED (__T3Interrupt)?ABSOLUTE (__T3Interrupt):ABSOLUTE (__DefaultInterrupt)
                  0x000126          0x4 LONG 0x2d0 DEFINED (__AltSPI1ErrInterrupt)?ABSOLUTE (__AltSPI1ErrInterrupt):DEFINED (__SPI1ErrInterrupt)?ABSOLUTE (__SPI1ErrInterrupt):ABSOLUTE (__DefaultInterrupt)
                  0x000128          0x4 LONG 0x2d0 DEFINED (__AltSPI1Interrupt)?ABSOLUTE (__AltSPI1Interrupt):DEFINED (__SPI1Interrupt)?ABSOLUTE (__SPI1Interrupt):ABSOLUTE (__DefaultInterrupt)
                  0x00012a          0x4 LONG 0x54e8 DEFINED (__AltU1RXInterrupt)?ABSOLUTE (__AltU1RXInterrupt):DEFINED (__U1RXInterrupt)?ABSOLUTE (__U1RXInterrupt):ABSOLUTE (__DefaultInterrupt)
                  0x00012c          0x4 LONG 0x54b0 DEFINED (__AltU1TXInterrupt)?ABSOLUTE (__AltU1TXInterrupt):DEFINED (__U1TXInterrupt)?ABSOLUTE (__U1TXInterrupt):ABSOLUTE (__DefaultInterrupt)
                  0x00012e          0x4 LONG 0x2d0 DEFINED (__AltADC1Interrupt)?ABSOLUTE (__AltADC1Interrupt):DEFINED (__ADC1Interrupt)?ABSOLUTE (__ADC1Interrupt):ABSOLUTE (__DefaultInterrupt)
                  0x000130          0x4 LONG 0x2d0 DEFINED (__AltDMA1Interrupt)?ABSOLUTE (__AltDMA1Interrupt):DEFINED (__DMA1Interrupt)?ABSOLUTE (__DMA1Interrupt):ABSOLUTE (__DefaultInterrupt)
                  0x000132          0x4 LONG 0x2d0 DEFINED (__AltInterrupt15)?ABSOLUTE (__AltInterrupt15):DEFINED (__Interrupt15)?ABSOLUTE (__Interrupt15):ABSOLUTE (__DefaultInterrupt)
                  0x000134          0x4 LONG 0x2d0 DEFINED (__AltSI2C1Interrupt)?ABSOLUTE (__AltSI2C1Interrupt):DEFINED (__SI2C1Interrupt)?ABSOLUTE (__SI2C1Interrupt):ABSOLUTE (__DefaultInterrupt)
                  0x000136          0x4 LONG 0x2d0 DEFINED (__AltMI2C1Interrupt)?ABSOLUTE (__AltMI2C1Interrupt):DEFINED (__MI2C1Interrupt)?ABSOLUTE (__MI2C1Interrupt):ABSOLUTE (__DefaultInterrupt)
                  0x000138          0x4 LONG 0x2d0 DEFINED (__AltInterrupt18)?ABSOLUTE (__AltInterrupt18):DEFINED (__Interrupt18)?ABSOLUTE (__Interrupt18):ABSOLUTE (__DefaultInterrupt)
                  0x00013a          0x4 LONG 0x2d0 DEFINED (__AltCNInterrupt)?ABSOLUTE (__AltCNInterrupt):DEFINED (__CNInterrupt)?ABSOLUTE (__CNInterrupt):ABSOLUTE (__DefaultInterrupt)
                  0x00013c          0x4 LONG 0x2d0 DEFINED (__AltINT1Interrupt)?ABSOLUTE (__AltINT1Interrupt):DEFINED (__INT1Interrupt)?ABSOLUTE (__INT1Interrupt):ABSOLUTE (__DefaultInterrupt)
                  0x00013e          0x4 LONG 0x2d0 DEFINED (__AltADC2Interrupt)?ABSOLUTE (__AltADC2Interrupt):DEFINED (__ADC2Interrupt)?ABSOLUTE (__ADC2Interrupt):ABSOLUTE (__DefaultInterrupt)
                  0x000140          0x4 LONG 0x4bb0 DEFINED (__AltIC7Interrupt)?ABSOLUTE (__AltIC7Interrupt):DEFINED (__IC7Interrupt)?ABSOLUTE (__IC7Interrupt):ABSOLUTE (__DefaultInterrupt)
                  0x000142          0x4 LONG 0x2d0 DEFINED (__AltIC8Interrupt)?ABSOLUTE (__AltIC8Interrupt):DEFINED (__IC8Interrupt)?ABSOLUTE (__IC8Interrupt):ABSOLUTE (__DefaultInterrupt)
                  0x000144          0x4 LONG 0x2d0 DEFINED (__AltDMA2Interrupt)?ABSOLUTE (__AltDMA2Interrupt):DEFINED (__DMA2Interrupt)?ABSOLUTE (__DMA2Interrupt):ABSOLUTE (__DefaultInterrupt)
                  0x000146          0x4 LONG 0x2d0 DEFINED (__AltOC3Interrupt)?ABSOLUTE (__AltOC3Interrupt):DEFINED (__OC3Interrupt)?ABSOLUTE (__OC3Interrupt):ABSOLUTE (__DefaultInterrupt)
                  0x000148          0x4 LONG 0x2d0 DEFINED (__AltOC4Interrupt)?ABSOLUTE (__AltOC4Interrupt):DEFINED (__OC4Interrupt)?ABSOLUTE (__OC4Interrupt):ABSOLUTE (__DefaultInterrupt)
                  0x00014a          0x4 LONG 0x5d02 DEFINED (__AltT4Interrupt)?ABSOLUTE (__AltT4Interrupt):DEFINED (__T4Interrupt)?ABSOLUTE (__T4Interrupt):ABSOLUTE (__DefaultInterrupt)
                  0x00014c          0x4 LONG 0x629c DEFINED (__AltT5Interrupt)?ABSOLUTE (__AltT5Interrupt):DEFINED (__T5Interrupt)?ABSOLUTE (__T5Interrupt):ABSOLUTE (__DefaultInterrupt)
                  0x00014e          0x4 LONG 0x2d0 DEFINED (__AltINT2Interrupt)?ABSOLUTE (__AltINT2Interrupt):DEFINED (__INT2Interrupt)?ABSOLUTE (__INT2Interrupt):ABSOLUTE (__DefaultInterrupt)
                  0x000150          0x4 LONG 0x561c DEFINED (__AltU2RXInterrupt)?ABSOLUTE (__AltU2RXInterrupt):DEFINED (__U2RXInterrupt)?ABSOLUTE (__U2RXInterrupt):ABSOLUTE (__DefaultInterrupt)
                  0x000152          0x4 LONG 0x55e4 DEFINED (__AltU2TXInterrupt)?ABSOLUTE (__AltU2TXInterrupt):DEFINED (__U2TXInterrupt)?ABSOLUTE (__U2TXInterrupt):ABSOLUTE (__DefaultInterrupt)
                  0x000154          0x4 LONG 0x2d0 DEFINED (__AltSPI2ErrInterrupt)?ABSOLUTE (__AltSPI2ErrInterrupt):DEFINED (__SPI2ErrInterrupt)?ABSOLUTE (__SPI2ErrInterrupt):ABSOLUTE (__DefaultInterrupt)
                  0x000156          0x4 LONG 0x60d8 DEFINED (__AltSPI2Interrupt)?ABSOLUTE (__AltSPI2Interrupt):DEFINED (__SPI2Interrupt)?ABSOLUTE (__SPI2Interrupt):ABSOLUTE (__DefaultInterrupt)
                  0x000158          0x4 LONG 0x2d0 DEFINED (__AltC1RxRdyInterrupt)?ABSOLUTE (__AltC1RxRdyInterrupt):DEFINED (__C1RxRdyInterrupt)?ABSOLUTE (__C1RxRdyInterrupt):ABSOLUTE (__DefaultInterrupt)
                  0x00015a          0x4 LONG 0x2d0 DEFINED (__AltC1Interrupt)?ABSOLUTE (__AltC1Interrupt):DEFINED (__C1Interrupt)?ABSOLUTE (__C1Interrupt):ABSOLUTE (__DefaultInterrupt)
                  0x00015c          0x4 LONG 0x2d0 DEFINED (__AltDMA3Interrupt)?ABSOLUTE (__AltDMA3Interrupt):DEFINED (__DMA3Interrupt)?ABSOLUTE (__DMA3Interrupt):ABSOLUTE (__DefaultInterrupt)
                  0x00015e          0x4 LONG 0x4a70 DEFINED (__AltIC3Interrupt)?ABSOLUTE (__AltIC3Interrupt):DEFINED (__IC3Interrupt)?ABSOLUTE (__IC3Interrupt):ABSOLUTE (__DefaultInterrupt)
                  0x000160          0x4 LONG 0x4ac0 DEFINED (__AltIC4Interrupt)?ABSOLUTE (__AltIC4Interrupt):DEFINED (__IC4Interrupt)?ABSOLUTE (__IC4Interrupt):ABSOLUTE (__DefaultInterrupt)
                  0x000162          0x4 LONG 0x4b10 DEFINED (__AltIC5Interrupt)?ABSOLUTE (__AltIC5Interrupt):DEFINED (__IC5Interrupt)?ABSOLUTE (__IC5Interrupt):ABSOLUTE (__DefaultInterrupt)
                  0x000164          0x4 LONG 0x4b60 DEFINED (__AltIC6Interrupt)?ABSOLUTE (__AltIC6Interrupt):DEFINED (__IC6Interrupt)?ABSOLUTE (__IC6Interrupt):ABSOLUTE (__DefaultInterrupt)
                  0x000166          0x4 LONG 0x2d0 DEFINED (__AltOC5Interrupt)?ABSOLUTE (__AltOC5Interrupt):DEFINED (__OC5Interrupt)?ABSOLUTE (__OC5Interrupt):ABSOLUTE (__DefaultInterrupt)
                  0x000168          0x4 LONG 0x2d0 DEFINED (__AltOC6Interrupt)?ABSOLUTE (__AltOC6Interrupt):DEFINED (__OC6Interrupt)?ABSOLUTE (__OC6Interrupt):ABSOLUTE (__DefaultInterrupt)
                  0x00016a          0x4 LONG 0x2d0 DEFINED (__AltOC7Interrupt)?ABSOLUTE (__AltOC7Interrupt):DEFINED (__OC7Interrupt)?ABSOLUTE (__OC7Interrupt):ABSOLUTE (__DefaultInterrupt)
                  0x00016c          0x4 LONG 0x2d0 DEFINED (__AltOC8Interrupt)?ABSOLUTE (__AltOC8Interrupt):DEFINED (__OC8Interrupt)?ABSOLUTE (__OC8Interrupt):ABSOLUTE (__DefaultInterrupt)
                  0x00016e          0x4 LONG 0x2d0 DEFINED (__AltInterrupt45)?ABSOLUTE (__AltInterrupt45):DEFINED (__Interrupt45)?ABSOLUTE (__Interrupt45):ABSOLUTE (__DefaultInterrupt)
                  0x000170          0x4 LONG 0x2d0 DEFINED (__AltDMA4Interrupt)?ABSOLUTE (__AltDMA4Interrupt):DEFINED (__DMA4Interrupt)?ABSOLUTE (__DMA4Interrupt):ABSOLUTE (__DefaultInterrupt)
                  0x000172          0x4 LONG 0x62ba DEFINED (__AltT6Interrupt)?ABSOLUTE (__AltT6Interrupt):DEFINED (__T6Interrupt)?ABSOLUTE (__T6Interrupt):ABSOLUTE (__DefaultInterrupt)
                  0x000174          0x4 LONG 0x62f8 DEFINED (__AltT7Interrupt)?ABSOLUTE (__AltT7Interrupt):DEFINED (__T7Interrupt)?ABSOLUTE (__T7Interrupt):ABSOLUTE (__DefaultInterrupt)
                  0x000176          0x4 LONG 0x2d0 DEFINED (__AltSI2C2Interrupt)?ABSOLUTE (__AltSI2C2Interrupt):DEFINED (__SI2C2Interrupt)?ABSOLUTE (__SI2C2Interrupt):ABSOLUTE (__DefaultInterrupt)
                  0x000178          0x4 LONG 0x2d0 DEFINED (__AltMI2C2Interrupt)?ABSOLUTE (__AltMI2C2Interrupt):DEFINED (__MI2C2Interrupt)?ABSOLUTE (__MI2C2Interrupt):ABSOLUTE (__DefaultInterrupt)
                  0x00017a          0x4 LONG 0x2d0 DEFINED (__AltT8Interrupt)?ABSOLUTE (__AltT8Interrupt):DEFINED (__T8Interrupt)?ABSOLUTE (__T8Interrupt):ABSOLUTE (__DefaultInterrupt)
                  0x00017c          0x4 LONG 0x2d0 DEFINED (__AltT9Interrupt)?ABSOLUTE (__AltT9Interrupt):DEFINED (__T9Interrupt)?ABSOLUTE (__T9Interrupt):ABSOLUTE (__DefaultInterrupt)
                  0x00017e          0x4 LONG 0x64de DEFINED (__AltINT3Interrupt)?ABSOLUTE (__AltINT3Interrupt):DEFINED (__INT3Interrupt)?ABSOLUTE (__INT3Interrupt):ABSOLUTE (__DefaultInterrupt)
                  0x000180          0x4 LONG 0x2d0 DEFINED (__AltINT4Interrupt)?ABSOLUTE (__AltINT4Interrupt):DEFINED (__INT4Interrupt)?ABSOLUTE (__INT4Interrupt):ABSOLUTE (__DefaultInterrupt)
                  0x000182          0x4 LONG 0x2d0 DEFINED (__AltC2RxRdyInterrupt)?ABSOLUTE (__AltC2RxRdyInterrupt):DEFINED (__C2RxRdyInterrupt)?ABSOLUTE (__C2RxRdyInterrupt):ABSOLUTE (__DefaultInterrupt)
                  0x000184          0x4 LONG 0x2d0 DEFINED (__AltC2Interrupt)?ABSOLUTE (__AltC2Interrupt):DEFINED (__C2Interrupt)?ABSOLUTE (__C2Interrupt):ABSOLUTE (__DefaultInterrupt)
                  0x000186          0x4 LONG 0x2d0 DEFINED (__AltInterrupt57)?ABSOLUTE (__AltInterrupt57):DEFINED (__Interrupt57)?ABSOLUTE (__Interrupt57):ABSOLUTE (__DefaultInterrupt)
                  0x000188          0x4 LONG 0x2d0 DEFINED (__AltInterrupt58)?ABSOLUTE (__AltInterrupt58):DEFINED (__Interrupt58)?ABSOLUTE (__Interrupt58):ABSOLUTE (__DefaultInterrupt)
                  0x00018a          0x4 LONG 0x2d0 DEFINED (__AltDCIErrInterrupt)?ABSOLUTE (__AltDCIErrInterrupt):DEFINED (__DCIErrInterrupt)?ABSOLUTE (__DCIErrInterrupt):ABSOLUTE (__DefaultInterrupt)
                  0x00018c          0x4 LONG 0x2d0 DEFINED (__AltDCIInterrupt)?ABSOLUTE (__AltDCIInterrupt):DEFINED (__DCIInterrupt)?ABSOLUTE (__DCIInterrupt):ABSOLUTE (__DefaultInterrupt)
                  0x00018e          0x4 LONG 0x2d0 DEFINED (__AltDMA5Interrupt)?ABSOLUTE (__AltDMA5Interrupt):DEFINED (__DMA5Interrupt)?ABSOLUTE (__DMA5Interrupt):ABSOLUTE (__DefaultInterrupt)
                  0x000190          0x4 LONG 0x2d0 DEFINED (__AltInterrupt62)?ABSOLUTE (__AltInterrupt62):DEFINED (__Interrupt62)?ABSOLUTE (__Interrupt62):ABSOLUTE (__DefaultInterrupt)
                  0x000192          0x4 LONG 0x2d0 DEFINED (__AltInterrupt63)?ABSOLUTE (__AltInterrupt63):DEFINED (__Interrupt63)?ABSOLUTE (__Interrupt63):ABSOLUTE (__DefaultInterrupt)
                  0x000194          0x4 LONG 0x2d0 DEFINED (__AltInterrupt64)?ABSOLUTE (__AltInterrupt64):DEFINED (__Interrupt64)?ABSOLUTE (__Interrupt64):ABSOLUTE (__DefaultInterrupt)
                  0x000196          0x4 LONG 0x2d0 DEFINED (__AltU1ErrInterrupt)?ABSOLUTE (__AltU1ErrInterrupt):DEFINED (__U1ErrInterrupt)?ABSOLUTE (__U1ErrInterrupt):ABSOLUTE (__DefaultInterrupt)
                  0x000198          0x4 LONG 0x2d0 DEFINED (__AltU2ErrInterrupt)?ABSOLUTE (__AltU2ErrInterrupt):DEFINED (__U2ErrInterrupt)?ABSOLUTE (__U2ErrInterrupt):ABSOLUTE (__DefaultInterrupt)
                  0x00019a          0x4 LONG 0x2d0 DEFINED (__AltInterrupt67)?ABSOLUTE (__AltInterrupt67):DEFINED (__Interrupt67)?ABSOLUTE (__Interrupt67):ABSOLUTE (__DefaultInterrupt)
                  0x00019c          0x4 LONG 0x2d0 DEFINED (__AltDMA6Interrupt)?ABSOLUTE (__AltDMA6Interrupt):DEFINED (__DMA6Interrupt)?ABSOLUTE (__DMA6Interrupt):ABSOLUTE (__DefaultInterrupt)
                  0x00019e          0x4 LONG 0x2d0 DEFINED (__AltDMA7Interrupt)?ABSOLUTE (__AltDMA7Interrupt):DEFINED (__DMA7Interrupt)?ABSOLUTE (__DMA7Interrupt):ABSOLUTE (__DefaultInterrupt)
                  0x0001a0          0x4 LONG 0x2d0 DEFINED (__AltC1TxReqInterrupt)?ABSOLUTE (__AltC1TxReqInterrupt):DEFINED (__C1TxReqInterrupt)?ABSOLUTE (__C1TxReqInterrupt):ABSOLUTE (__DefaultInterrupt)
                  0x0001a2          0x4 LONG 0x2d0 DEFINED (__AltC2TxReqInterrupt)?ABSOLUTE (__AltC2TxReqInterrupt):DEFINED (__C2TxReqInterrupt)?ABSOLUTE (__C2TxReqInterrupt):ABSOLUTE (__DefaultInterrupt)
                  0x0001a4          0x4 LONG 0x2d0 DEFINED (__AltInterrupt72)?ABSOLUTE (__AltInterrupt72):DEFINED (__Interrupt72)?ABSOLUTE (__Interrupt72):ABSOLUTE (__DefaultInterrupt)
                  0x0001a6          0x4 LONG 0x2d0 DEFINED (__AltInterrupt73)?ABSOLUTE (__AltInterrupt73):DEFINED (__Interrupt73)?ABSOLUTE (__Interrupt73):ABSOLUTE (__DefaultInterrupt)
                  0x0001a8          0x4 LONG 0x2d0 DEFINED (__AltInterrupt74)?ABSOLUTE (__AltInterrupt74):DEFINED (__Interrupt74)?ABSOLUTE (__Interrupt74):ABSOLUTE (__DefaultInterrupt)
                  0x0001aa          0x4 LONG 0x2d0 DEFINED (__AltInterrupt75)?ABSOLUTE (__AltInterrupt75):DEFINED (__Interrupt75)?ABSOLUTE (__Interrupt75):ABSOLUTE (__DefaultInterrupt)
                  0x0001ac          0x4 LONG 0x2d0 DEFINED (__AltInterrupt76)?ABSOLUTE (__AltInterrupt76):DEFINED (__Interrupt76)?ABSOLUTE (__Interrupt76):ABSOLUTE (__DefaultInterrupt)
                  0x0001ae          0x4 LONG 0x2d0 DEFINED (__AltInterrupt77)?ABSOLUTE (__AltInterrupt77):DEFINED (__Interrupt77)?ABSOLUTE (__Interrupt77):ABSOLUTE (__DefaultInterrupt)
                  0x0001b0          0x4 LONG 0x2d0 DEFINED (__AltInterrupt78)?ABSOLUTE (__AltInterrupt78):DEFINED (__Interrupt78)?ABSOLUTE (__Interrupt78):ABSOLUTE (__DefaultInterrupt)
                  0x0001b2          0x4 LONG 0x2d0 DEFINED (__AltInterrupt79)?ABSOLUTE (__AltInterrupt79):DEFINED (__Interrupt79)?ABSOLUTE (__Interrupt79):ABSOLUTE (__DefaultInterrupt)
                  0x0001b4          0x4 LONG 0x2d0 DEFINED (__AltInterrupt80)?ABSOLUTE (__AltInterrupt80):DEFINED (__Interrupt80)?ABSOLUTE (__Interrupt80):ABSOLUTE (__DefaultInterrupt)
                  0x0001b6          0x4 LONG 0x2d0 DEFINED (__AltInterrupt81)?ABSOLUTE (__AltInterrupt81):DEFINED (__Interrupt81)?ABSOLUTE (__Interrupt81):ABSOLUTE (__DefaultInterrupt)
                  0x0001b8          0x4 LONG 0x2d0 DEFINED (__AltInterrupt82)?ABSOLUTE (__AltInterrupt82):DEFINED (__Interrupt82)?ABSOLUTE (__Interrupt82):ABSOLUTE (__DefaultInterrupt)
                  0x0001ba          0x4 LONG 0x2d0 DEFINED (__AltInterrupt83)?ABSOLUTE (__AltInterrupt83):DEFINED (__Interrupt83)?ABSOLUTE (__Interrupt83):ABSOLUTE (__DefaultInterrupt)
                  0x0001bc          0x4 LONG 0x2d0 DEFINED (__AltInterrupt84)?ABSOLUTE (__AltInterrupt84):DEFINED (__Interrupt84)?ABSOLUTE (__Interrupt84):ABSOLUTE (__DefaultInterrupt)
                  0x0001be          0x4 LONG 0x2d0 DEFINED (__AltInterrupt85)?ABSOLUTE (__AltInterrupt85):DEFINED (__Interrupt85)?ABSOLUTE (__Interrupt85):ABSOLUTE (__DefaultInterrupt)
                  0x0001c0          0x4 LONG 0x2d0 DEFINED (__AltInterrupt86)?ABSOLUTE (__AltInterrupt86):DEFINED (__Interrupt86)?ABSOLUTE (__Interrupt86):ABSOLUTE (__DefaultInterrupt)
                  0x0001c2          0x4 LONG 0x2d0 DEFINED (__AltInterrupt87)?ABSOLUTE (__AltInterrupt87):DEFINED (__Interrupt87)?ABSOLUTE (__Interrupt87):ABSOLUTE (__DefaultInterrupt)
                  0x0001c4          0x4 LONG 0x2d0 DEFINED (__AltInterrupt88)?ABSOLUTE (__AltInterrupt88):DEFINED (__Interrupt88)?ABSOLUTE (__Interrupt88):ABSOLUTE (__DefaultInterrupt)
                  0x0001c6          0x4 LONG 0x2d0 DEFINED (__AltInterrupt89)?ABSOLUTE (__AltInterrupt89):DEFINED (__Interrupt89)?ABSOLUTE (__Interrupt89):ABSOLUTE (__DefaultInterrupt)
                  0x0001c8          0x4 LONG 0x2d0 DEFINED (__AltInterrupt90)?ABSOLUTE (__AltInterrupt90):DEFINED (__Interrupt90)?ABSOLUTE (__Interrupt90):ABSOLUTE (__DefaultInterrupt)
                  0x0001ca          0x4 LONG 0x2d0 DEFINED (__AltInterrupt91)?ABSOLUTE (__AltInterrupt91):DEFINED (__Interrupt91)?ABSOLUTE (__Interrupt91):ABSOLUTE (__DefaultInterrupt)
                  0x0001cc          0x4 LONG 0x2d0 DEFINED (__AltInterrupt92)?ABSOLUTE (__AltInterrupt92):DEFINED (__Interrupt92)?ABSOLUTE (__Interrupt92):ABSOLUTE (__DefaultInterrupt)
                  0x0001ce          0x4 LONG 0x2d0 DEFINED (__AltInterrupt93)?ABSOLUTE (__AltInterrupt93):DEFINED (__Interrupt93)?ABSOLUTE (__Interrupt93):ABSOLUTE (__DefaultInterrupt)
                  0x0001d0          0x4 LONG 0x2d0 DEFINED (__AltInterrupt94)?ABSOLUTE (__AltInterrupt94):DEFINED (__Interrupt94)?ABSOLUTE (__Interrupt94):ABSOLUTE (__DefaultInterrupt)
                  0x0001d2          0x4 LONG 0x2d0 DEFINED (__AltInterrupt95)?ABSOLUTE (__AltInterrupt95):DEFINED (__Interrupt95)?ABSOLUTE (__Interrupt95):ABSOLUTE (__DefaultInterrupt)
                  0x0001d4          0x4 LONG 0x2d0 DEFINED (__AltInterrupt96)?ABSOLUTE (__AltInterrupt96):DEFINED (__Interrupt96)?ABSOLUTE (__Interrupt96):ABSOLUTE (__DefaultInterrupt)
                  0x0001d6          0x4 LONG 0x2d0 DEFINED (__AltInterrupt97)?ABSOLUTE (__AltInterrupt97):DEFINED (__Interrupt97)?ABSOLUTE (__Interrupt97):ABSOLUTE (__DefaultInterrupt)
                  0x0001d8          0x4 LONG 0x2d0 DEFINED (__AltInterrupt98)?ABSOLUTE (__AltInterrupt98):DEFINED (__Interrupt98)?ABSOLUTE (__Interrupt98):ABSOLUTE (__DefaultInterrupt)
                  0x0001da          0x4 LONG 0x2d0 DEFINED (__AltInterrupt99)?ABSOLUTE (__AltInterrupt99):DEFINED (__Interrupt99)?ABSOLUTE (__Interrupt99):ABSOLUTE (__DefaultInterrupt)
                  0x0001dc          0x4 LONG 0x2d0 DEFINED (__AltInterrupt100)?ABSOLUTE (__AltInterrupt100):DEFINED (__Interrupt100)?ABSOLUTE (__Interrupt100):ABSOLUTE (__DefaultInterrupt)
                  0x0001de          0x4 LONG 0x2d0 DEFINED (__AltInterrupt101)?ABSOLUTE (__AltInterrupt101):DEFINED (__Interrupt101)?ABSOLUTE (__Interrupt101):ABSOLUTE (__DefaultInterrupt)
                  0x0001e0          0x4 LONG 0x2d0 DEFINED (__AltInterrupt102)?ABSOLUTE (__AltInterrupt102):DEFINED (__Interrupt102)?ABSOLUTE (__Interrupt102):ABSOLUTE (__DefaultInterrupt)
                  0x0001e2          0x4 LONG 0x2d0 DEFINED (__AltInterrupt103)?ABSOLUTE (__AltInterrupt103):DEFINED (__Interrupt103)?ABSOLUTE (__Interrupt103):ABSOLUTE (__DefaultInterrupt)
                  0x0001e4          0x4 LONG 0x2d0 DEFINED (__AltInterrupt104)?ABSOLUTE (__AltInterrupt104):DEFINED (__Interrupt104)?ABSOLUTE (__Interrupt104):ABSOLUTE (__DefaultInterrupt)
                  0x0001e6          0x4 LONG 0x2d0 DEFINED (__AltInterrupt105)?ABSOLUTE (__AltInterrupt105):DEFINED (__Interrupt105)?ABSOLUTE (__Interrupt105):ABSOLUTE (__DefaultInterrupt)
                  0x0001e8          0x4 LONG 0x2d0 DEFINED (__AltInterrupt106)?ABSOLUTE (__AltInterrupt106):DEFINED (__Interrupt106)?ABSOLUTE (__Interrupt106):ABSOLUTE (__DefaultInterrupt)
                  0x0001ea          0x4 LONG 0x2d0 DEFINED (__AltInterrupt107)?ABSOLUTE (__AltInterrupt107):DEFINED (__Interrupt107)?ABSOLUTE (__Interrupt107):ABSOLUTE (__DefaultInterrupt)
                  0x0001ec          0x4 LONG 0x2d0 DEFINED (__AltInterrupt108)?ABSOLUTE (__AltInterrupt108):DEFINED (__Interrupt108)?ABSOLUTE (__Interrupt108):ABSOLUTE (__DefaultInterrupt)
                  0x0001ee          0x4 LONG 0x2d0 DEFINED (__AltInterrupt109)?ABSOLUTE (__AltInterrupt109):DEFINED (__Interrupt109)?ABSOLUTE (__Interrupt109):ABSOLUTE (__DefaultInterrupt)
                  0x0001f0          0x4 LONG 0x2d0 DEFINED (__AltInterrupt110)?ABSOLUTE (__AltInterrupt110):DEFINED (__Interrupt110)?ABSOLUTE (__Interrupt110):ABSOLUTE (__DefaultInterrupt)
                  0x0001f2          0x4 LONG 0x2d0 DEFINED (__AltInterrupt111)?ABSOLUTE (__AltInterrupt111):DEFINED (__Interrupt111)?ABSOLUTE (__Interrupt111):ABSOLUTE (__DefaultInterrupt)
                  0x0001f4          0x4 LONG 0x2d0 DEFINED (__AltInterrupt112)?ABSOLUTE (__AltInterrupt112):DEFINED (__Interrupt112)?ABSOLUTE (__Interrupt112):ABSOLUTE (__DefaultInterrupt)
                  0x0001f6          0x4 LONG 0x2d0 DEFINED (__AltInterrupt113)?ABSOLUTE (__AltInterrupt113):DEFINED (__Interrupt113)?ABSOLUTE (__Interrupt113):ABSOLUTE (__DefaultInterrupt)
                  0x0001f8          0x4 LONG 0x2d0 DEFINED (__AltInterrupt114)?ABSOLUTE (__AltInterrupt114):DEFINED (__Interrupt114)?ABSOLUTE (__Interrupt114):ABSOLUTE (__DefaultInterrupt)
                  0x0001fa          0x4 LONG 0x2d0 DEFINED (__AltInterrupt115)?ABSOLUTE (__AltInterrupt115):DEFINED (__Interrupt115)?ABSOLUTE (__Interrupt115):ABSOLUTE (__DefaultInterrupt)
                  0x0001fc          0x4 LONG 0x2d0 DEFINED (__AltInterrupt116)?ABSOLUTE (__AltInterrupt116):DEFINED (__Interrupt116)?ABSOLUTE (__Interrupt116):ABSOLUTE (__DefaultInterrupt)
                  0x0001fe          0x4 LONG 0x2d0 DEFINED (__AltInterrupt117)?ABSOLUTE (__AltInterrupt117):DEFINED (__Interrupt117)?ABSOLUTE (__Interrupt117):ABSOLUTE (__DefaultInterrupt)
                    0x0000                  WREG0 = 0x0
                    0x0000                  _WREG0 = 0x0
                    0x0002                  WREG1 = 0x2
                    0x0002                  _WREG1 = 0x2
                    0x0004                  WREG2 = 0x4
                    0x0004                  _WREG2 = 0x4
                    0x0006                  WREG3 = 0x6
                    0x0006                  _WREG3 = 0x6
                    0x0008                  WREG4 = 0x8
                    0x0008                  _WREG4 = 0x8
                    0x000a                  WREG5 = 0xa
                    0x000a                  _WREG5 = 0xa
                    0x000c                  WREG6 = 0xc
                    0x000c                  _WREG6 = 0xc
                    0x000e                  WREG7 = 0xe
                    0x000e                  _WREG7 = 0xe
                    0x0010                  WREG8 = 0x10
                    0x0010                  _WREG8 = 0x10
                    0x0012                  WREG9 = 0x12
                    0x0012                  _WREG9 = 0x12
                    0x0014                  WREG10 = 0x14
                    0x0014                  _WREG10 = 0x14
                    0x0016                  WREG11 = 0x16
                    0x0016                  _WREG11 = 0x16
                    0x0018                  WREG12 = 0x18
                    0x0018                  _WREG12 = 0x18
                    0x001a                  WREG13 = 0x1a
                    0x001a                  _WREG13 = 0x1a
                    0x001c                  WREG14 = 0x1c
                    0x001c                  _WREG14 = 0x1c
                    0x001e                  WREG15 = 0x1e
                    0x001e                  _WREG15 = 0x1e
                    0x0020                  SPLIM = 0x20
                    0x0020                  _SPLIM = 0x20
                    0x0022                  ACCAL = 0x22
                    0x0022                  _ACCAL = 0x22
                    0x0024                  ACCAH = 0x24
                    0x0024                  _ACCAH = 0x24
                    0x0026                  ACCAU = 0x26
                    0x0026                  _ACCAU = 0x26
                    0x0028                  ACCBL = 0x28
                    0x0028                  _ACCBL = 0x28
                    0x002a                  ACCBH = 0x2a
                    0x002a                  _ACCBH = 0x2a
                    0x002c                  ACCBU = 0x2c
                    0x002c                  _ACCBU = 0x2c
                    0x002e                  PCL = 0x2e
                    0x002e                  _PCL = 0x2e
                    0x0030                  PCH = 0x30
                    0x0030                  _PCH = 0x30
                    0x0032                  TBLPAG = 0x32
                    0x0032                  _TBLPAG = 0x32
                    0x0034                  PSVPAG = 0x34
                    0x0034                  _PSVPAG = 0x34
                    0x0036                  RCOUNT = 0x36
                    0x0036                  _RCOUNT = 0x36
                    0x0038                  DCOUNT = 0x38
                    0x0038                  _DCOUNT = 0x38
                    0x003a                  DOSTARTL = 0x3a
                    0x003a                  _DOSTARTL = 0x3a
                    0x003c                  DOSTARTH = 0x3c
                    0x003c                  _DOSTARTH = 0x3c
                    0x003e                  DOENDL = 0x3e
                    0x003e                  _DOENDL = 0x3e
                    0x0040                  DOENDH = 0x40
                    0x0040                  _DOENDH = 0x40
                    0x0042                  SR = 0x42
                    0x0042                  _SR = 0x42
                    0x0042                  _SRbits = 0x42
                    0x0044                  CORCON = 0x44
                    0x0044                  _CORCON = 0x44
                    0x0044                  _CORCONbits = 0x44
                    0x0046                  MODCON = 0x46
                    0x0046                  _MODCON = 0x46
                    0x0046                  _MODCONbits = 0x46
                    0x0048                  XMODSRT = 0x48
                    0x0048                  _XMODSRT = 0x48
                    0x004a                  XMODEND = 0x4a
                    0x004a                  _XMODEND = 0x4a
                    0x004c                  YMODSRT = 0x4c
                    0x004c                  _YMODSRT = 0x4c
                    0x004e                  YMODEND = 0x4e
                    0x004e                  _YMODEND = 0x4e
                    0x0050                  XBREV = 0x50
                    0x0050                  _XBREV = 0x50
                    0x0050                  _XBREVbits = 0x50
                    0x0052                  DISICNT = 0x52
                    0x0052                  _DISICNT = 0x52
                    0x0060                  CNEN1 = 0x60
                    0x0060                  _CNEN1 = 0x60
                    0x0060                  _CNEN1bits = 0x60
                    0x0062                  CNEN2 = 0x62
                    0x0062                  _CNEN2 = 0x62
                    0x0062                  _CNEN2bits = 0x62
                    0x0068                  CNPU1 = 0x68
                    0x0068                  _CNPU1 = 0x68
                    0x0068                  _CNPU1bits = 0x68
                    0x006a                  CNPU2 = 0x6a
                    0x006a                  _CNPU2 = 0x6a
                    0x006a                  _CNPU2bits = 0x6a
                    0x0080                  INTCON1 = 0x80
                    0x0080                  _INTCON1 = 0x80
                    0x0080                  _INTCON1bits = 0x80
                    0x0082                  INTCON2 = 0x82
                    0x0082                  _INTCON2 = 0x82
                    0x0082                  _INTCON2bits = 0x82
                    0x0084                  IFS0 = 0x84
                    0x0084                  _IFS0 = 0x84
                    0x0084                  _IFS0bits = 0x84
                    0x0086                  IFS1 = 0x86
                    0x0086                  _IFS1 = 0x86
                    0x0086                  _IFS1bits = 0x86
                    0x0088                  IFS2 = 0x88
                    0x0088                  _IFS2 = 0x88
                    0x0088                  _IFS2bits = 0x88
                    0x008a                  IFS3 = 0x8a
                    0x008a                  _IFS3 = 0x8a
                    0x008a                  _IFS3bits = 0x8a
                    0x008c                  IFS4 = 0x8c
                    0x008c                  _IFS4 = 0x8c
                    0x008c                  _IFS4bits = 0x8c
                    0x0094                  IEC0 = 0x94
                    0x0094                  _IEC0 = 0x94
                    0x0094                  _IEC0bits = 0x94
                    0x0096                  IEC1 = 0x96
                    0x0096                  _IEC1 = 0x96
                    0x0096                  _IEC1bits = 0x96
                    0x0098                  IEC2 = 0x98
                    0x0098                  _IEC2 = 0x98
                    0x0098                  _IEC2bits = 0x98
                    0x009a                  IEC3 = 0x9a
                    0x009a                  _IEC3 = 0x9a
                    0x009a                  _IEC3bits = 0x9a
                    0x009c                  IEC4 = 0x9c
                    0x009c                  _IEC4 = 0x9c
                    0x009c                  _IEC4bits = 0x9c
                    0x00a4                  IPC0 = 0xa4
                    0x00a4                  _IPC0 = 0xa4
                    0x00a4                  _IPC0bits = 0xa4
                    0x00a6                  IPC1 = 0xa6
                    0x00a6                  _IPC1 = 0xa6
                    0x00a6                  _IPC1bits = 0xa6
                    0x00a8                  IPC2 = 0xa8
                    0x00a8                  _IPC2 = 0xa8
                    0x00a8                  _IPC2bits = 0xa8
                    0x00aa                  IPC3 = 0xaa
                    0x00aa                  _IPC3 = 0xaa
                    0x00aa                  _IPC3bits = 0xaa
                    0x00ac                  IPC4 = 0xac
                    0x00ac                  _IPC4 = 0xac
                    0x00ac                  _IPC4bits = 0xac
                    0x00ae                  IPC5 = 0xae
                    0x00ae                  _IPC5 = 0xae
                    0x00ae                  _IPC5bits = 0xae
                    0x00b0                  IPC6 = 0xb0
                    0x00b0                  _IPC6 = 0xb0
                    0x00b0                  _IPC6bits = 0xb0
                    0x00b2                  IPC7 = 0xb2
                    0x00b2                  _IPC7 = 0xb2
                    0x00b2                  _IPC7bits = 0xb2
                    0x00b4                  IPC8 = 0xb4
                    0x00b4                  _IPC8 = 0xb4
                    0x00b4                  _IPC8bits = 0xb4
                    0x00b6                  IPC9 = 0xb6
                    0x00b6                  _IPC9 = 0xb6
                    0x00b6                  _IPC9bits = 0xb6
                    0x00b8                  IPC10 = 0xb8
                    0x00b8                  _IPC10 = 0xb8
                    0x00b8                  _IPC10bits = 0xb8
                    0x00ba                  IPC11 = 0xba
                    0x00ba                  _IPC11 = 0xba
                    0x00ba                  _IPC11bits = 0xba
                    0x00bc                  IPC12 = 0xbc
                    0x00bc                  _IPC12 = 0xbc
                    0x00bc                  _IPC12bits = 0xbc
                    0x00be                  IPC13 = 0xbe
                    0x00be                  _IPC13 = 0xbe
                    0x00be                  _IPC13bits = 0xbe
                    0x00c0                  IPC14 = 0xc0
                    0x00c0                  _IPC14 = 0xc0
                    0x00c0                  _IPC14bits = 0xc0
                    0x00c2                  IPC15 = 0xc2
                    0x00c2                  _IPC15 = 0xc2
                    0x00c2                  _IPC15bits = 0xc2
                    0x00c4                  IPC16 = 0xc4
                    0x00c4                  _IPC16 = 0xc4
                    0x00c4                  _IPC16bits = 0xc4
                    0x00c6                  IPC17 = 0xc6
                    0x00c6                  _IPC17 = 0xc6
                    0x00c6                  _IPC17bits = 0xc6
                    0x00e0                  INTTREG = 0xe0
                    0x00e0                  _INTTREG = 0xe0
                    0x00e0                  _INTTREGbits = 0xe0
                    0x0100                  TMR1 = 0x100
                    0x0100                  _TMR1 = 0x100
                    0x0102                  PR1 = 0x102
                    0x0102                  _PR1 = 0x102
                    0x0104                  T1CON = 0x104
                    0x0104                  _T1CON = 0x104
                    0x0104                  _T1CONbits = 0x104
                    0x0106                  TMR2 = 0x106
                    0x0106                  _TMR2 = 0x106
                    0x0108                  TMR3HLD = 0x108
                    0x0108                  _TMR3HLD = 0x108
                    0x010a                  TMR3 = 0x10a
                    0x010a                  _TMR3 = 0x10a
                    0x010c                  PR2 = 0x10c
                    0x010c                  _PR2 = 0x10c
                    0x010e                  PR3 = 0x10e
                    0x010e                  _PR3 = 0x10e
                    0x0110                  T2CON = 0x110
                    0x0110                  _T2CON = 0x110
                    0x0110                  _T2CONbits = 0x110
                    0x0112                  T3CON = 0x112
                    0x0112                  _T3CON = 0x112
                    0x0112                  _T3CONbits = 0x112
                    0x0114                  TMR4 = 0x114
                    0x0114                  _TMR4 = 0x114
                    0x0116                  TMR5HLD = 0x116
                    0x0116                  _TMR5HLD = 0x116
                    0x0118                  TMR5 = 0x118
                    0x0118                  _TMR5 = 0x118
                    0x011a                  PR4 = 0x11a
                    0x011a                  _PR4 = 0x11a
                    0x011c                  PR5 = 0x11c
                    0x011c                  _PR5 = 0x11c
                    0x011e                  T4CON = 0x11e
                    0x011e                  _T4CON = 0x11e
                    0x011e                  _T4CONbits = 0x11e
                    0x0120                  T5CON = 0x120
                    0x0120                  _T5CON = 0x120
                    0x0120                  _T5CONbits = 0x120
                    0x0122                  TMR6 = 0x122
                    0x0122                  _TMR6 = 0x122
                    0x0124                  TMR7HLD = 0x124
                    0x0124                  _TMR7HLD = 0x124
                    0x0126                  TMR7 = 0x126
                    0x0126                  _TMR7 = 0x126
                    0x0128                  PR6 = 0x128
                    0x0128                  _PR6 = 0x128
                    0x012a                  PR7 = 0x12a
                    0x012a                  _PR7 = 0x12a
                    0x012c                  T6CON = 0x12c
                    0x012c                  _T6CON = 0x12c
                    0x012c                  _T6CONbits = 0x12c
                    0x012e                  T7CON = 0x12e
                    0x012e                  _T7CON = 0x12e
                    0x012e                  _T7CONbits = 0x12e
                    0x0130                  TMR8 = 0x130
                    0x0130                  _TMR8 = 0x130
                    0x0132                  TMR9HLD = 0x132
                    0x0132                  _TMR9HLD = 0x132
                    0x0134                  TMR9 = 0x134
                    0x0134                  _TMR9 = 0x134
                    0x0136                  PR8 = 0x136
                    0x0136                  _PR8 = 0x136
                    0x0138                  PR9 = 0x138
                    0x0138                  _PR9 = 0x138
                    0x013a                  T8CON = 0x13a
                    0x013a                  _T8CON = 0x13a
                    0x013a                  _T8CONbits = 0x13a
                    0x013c                  T9CON = 0x13c
                    0x013c                  _T9CON = 0x13c
                    0x013c                  _T9CONbits = 0x13c
                    0x0140                  IC1BUF = 0x140
                    0x0140                  _IC1BUF = 0x140
                    0x0142                  IC1CON = 0x142
                    0x0142                  _IC1CON = 0x142
                    0x0142                  _IC1CONbits = 0x142
                    0x0144                  IC2BUF = 0x144
                    0x0144                  _IC2BUF = 0x144
                    0x0146                  IC2CON = 0x146
                    0x0146                  _IC2CON = 0x146
                    0x0146                  _IC2CONbits = 0x146
                    0x0148                  IC3BUF = 0x148
                    0x0148                  _IC3BUF = 0x148
                    0x014a                  IC3CON = 0x14a
                    0x014a                  _IC3CON = 0x14a
                    0x014a                  _IC3CONbits = 0x14a
                    0x014c                  IC4BUF = 0x14c
                    0x014c                  _IC4BUF = 0x14c
                    0x014e                  IC4CON = 0x14e
                    0x014e                  _IC4CON = 0x14e
                    0x014e                  _IC4CONbits = 0x14e
                    0x0150                  IC5BUF = 0x150
                    0x0150                  _IC5BUF = 0x150
                    0x0152                  IC5CON = 0x152
                    0x0152                  _IC5CON = 0x152
                    0x0152                  _IC5CONbits = 0x152
                    0x0154                  IC6BUF = 0x154
                    0x0154                  _IC6BUF = 0x154
                    0x0156                  IC6CON = 0x156
                    0x0156                  _IC6CON = 0x156
                    0x0156                  _IC6CONbits = 0x156
                    0x0158                  IC7BUF = 0x158
                    0x0158                  _IC7BUF = 0x158
                    0x015a                  IC7CON = 0x15a
                    0x015a                  _IC7CON = 0x15a
                    0x015a                  _IC7CONbits = 0x15a
                    0x015c                  IC8BUF = 0x15c
                    0x015c                  _IC8BUF = 0x15c
                    0x015e                  IC8CON = 0x15e
                    0x015e                  _IC8CON = 0x15e
                    0x015e                  _IC8CONbits = 0x15e
                    0x0180                  OC1RS = 0x180
                    0x0180                  _OC1RS = 0x180
                    0x0182                  OC1R = 0x182
                    0x0182                  _OC1R = 0x182
                    0x0184                  OC1CON = 0x184
                    0x0184                  _OC1CON = 0x184
                    0x0184                  _OC1CONbits = 0x184
                    0x0186                  OC2RS = 0x186
                    0x0186                  _OC2RS = 0x186
                    0x0188                  OC2R = 0x188
                    0x0188                  _OC2R = 0x188
                    0x018a                  OC2CON = 0x18a
                    0x018a                  _OC2CON = 0x18a
                    0x018a                  _OC2CONbits = 0x18a
                    0x018c                  OC3RS = 0x18c
                    0x018c                  _OC3RS = 0x18c
                    0x018e                  OC3R = 0x18e
                    0x018e                  _OC3R = 0x18e
                    0x0190                  OC3CON = 0x190
                    0x0190                  _OC3CON = 0x190
                    0x0190                  _OC3CONbits = 0x190
                    0x0192                  OC4RS = 0x192
                    0x0192                  _OC4RS = 0x192
                    0x0194                  OC4R = 0x194
                    0x0194                  _OC4R = 0x194
                    0x0196                  OC4CON = 0x196
                    0x0196                  _OC4CON = 0x196
                    0x0196                  _OC4CONbits = 0x196
                    0x0198                  OC5RS = 0x198
                    0x0198                  _OC5RS = 0x198
                    0x019a                  OC5R = 0x19a
                    0x019a                  _OC5R = 0x19a
                    0x019c                  OC5CON = 0x19c
                    0x019c                  _OC5CON = 0x19c
                    0x019c                  _OC5CONbits = 0x19c
                    0x019e                  OC6RS = 0x19e
                    0x019e                  _OC6RS = 0x19e
                    0x01a0                  OC6R = 0x1a0
                    0x01a0                  _OC6R = 0x1a0
                    0x01a2                  OC6CON = 0x1a2
                    0x01a2                  _OC6CON = 0x1a2
                    0x01a2                  _OC6CONbits = 0x1a2
                    0x01a4                  OC7RS = 0x1a4
                    0x01a4                  _OC7RS = 0x1a4
                    0x01a6                  OC7R = 0x1a6
                    0x01a6                  _OC7R = 0x1a6
                    0x01a8                  OC7CON = 0x1a8
                    0x01a8                  _OC7CON = 0x1a8
                    0x01a8                  _OC7CONbits = 0x1a8
                    0x01aa                  OC8RS = 0x1aa
                    0x01aa                  _OC8RS = 0x1aa
                    0x01ac                  OC8R = 0x1ac
                    0x01ac                  _OC8R = 0x1ac
                    0x01ae                  OC8CON = 0x1ae
                    0x01ae                  _OC8CON = 0x1ae
                    0x01ae                  _OC8CONbits = 0x1ae
                    0x0200                  I2C1RCV = 0x200
                    0x0200                  _I2C1RCV = 0x200
                    0x0200                  I2CRCV = 0x200
                    0x0200                  _I2CRCV = 0x200
                    0x0202                  I2C1TRN = 0x202
                    0x0202                  _I2C1TRN = 0x202
                    0x0202                  I2CTRN = 0x202
                    0x0202                  _I2CTRN = 0x202
                    0x0204                  I2C1BRG = 0x204
                    0x0204                  _I2C1BRG = 0x204
                    0x0206                  I2C1CON = 0x206
                    0x0206                  _I2C1CON = 0x206
                    0x0206                  _I2C1CONbits = 0x206
                    0x0206                  I2CCON = 0x206
                    0x0206                  _I2CCON = 0x206
                    0x0206                  _I2CCONbits = 0x206
                    0x0208                  I2C1STAT = 0x208
                    0x0208                  _I2C1STAT = 0x208
                    0x0208                  _I2C1STATbits = 0x208
                    0x0208                  I2CSTAT = 0x208
                    0x0208                  _I2CSTAT = 0x208
                    0x0208                  _I2CSTATbits = 0x208
                    0x020a                  I2C1ADD = 0x20a
                    0x020a                  _I2C1ADD = 0x20a
                    0x020a                  I2CADD = 0x20a
                    0x020a                  _I2CADD = 0x20a
                    0x020c                  I2C1MSK = 0x20c
                    0x020c                  _I2C1MSK = 0x20c
                    0x0210                  I2C2RCV = 0x210
                    0x0210                  _I2C2RCV = 0x210
                    0x0212                  I2C2TRN = 0x212
                    0x0212                  _I2C2TRN = 0x212
                    0x0214                  I2C2BRG = 0x214
                    0x0214                  _I2C2BRG = 0x214
                    0x0216                  I2C2CON = 0x216
                    0x0216                  _I2C2CON = 0x216
                    0x0216                  _I2C2CONbits = 0x216
                    0x0218                  I2C2STAT = 0x218
                    0x0218                  _I2C2STAT = 0x218
                    0x0218                  _I2C2STATbits = 0x218
                    0x021a                  I2C2ADD = 0x21a
                    0x021a                  _I2C2ADD = 0x21a
                    0x021c                  I2C2MSK = 0x21c
                    0x021c                  _I2C2MSK = 0x21c
                    0x0220                  U1MODE = 0x220
                    0x0220                  _U1MODE = 0x220
                    0x0220                  _U1MODEbits = 0x220
                    0x0222                  U1STA = 0x222
                    0x0222                  _U1STA = 0x222
                    0x0222                  _U1STAbits = 0x222
                    0x0224                  U1TXREG = 0x224
                    0x0224                  _U1TXREG = 0x224
                    0x0224                  _U1TXREGbits = 0x224
                    0x0226                  U1RXREG = 0x226
                    0x0226                  _U1RXREG = 0x226
                    0x0226                  _U1RXREGbits = 0x226
                    0x0228                  U1BRG = 0x228
                    0x0228                  _U1BRG = 0x228
                    0x0230                  U2MODE = 0x230
                    0x0230                  _U2MODE = 0x230
                    0x0230                  _U2MODEbits = 0x230
                    0x0232                  U2STA = 0x232
                    0x0232                  _U2STA = 0x232
                    0x0232                  _U2STAbits = 0x232
                    0x0234                  U2TXREG = 0x234
                    0x0234                  _U2TXREG = 0x234
                    0x0234                  _U2TXREGbits = 0x234
                    0x0236                  U2RXREG = 0x236
                    0x0236                  _U2RXREG = 0x236
                    0x0236                  _U2RXREGbits = 0x236
                    0x0238                  U2BRG = 0x238
                    0x0238                  _U2BRG = 0x238
                    0x0240                  SPI1STAT = 0x240
                    0x0240                  _SPI1STAT = 0x240
                    0x0240                  _SPI1STATbits = 0x240
                    0x0242                  SPI1CON1 = 0x242
                    0x0242                  _SPI1CON1 = 0x242
                    0x0242                  _SPI1CON1bits = 0x242
                    0x0244                  SPI1CON2 = 0x244
                    0x0244                  _SPI1CON2 = 0x244
                    0x0244                  _SPI1CON2bits = 0x244
                    0x0248                  SPI1BUF = 0x248
                    0x0248                  _SPI1BUF = 0x248
                    0x0260                  SPI2STAT = 0x260
                    0x0260                  _SPI2STAT = 0x260
                    0x0260                  _SPI2STATbits = 0x260
                    0x0262                  SPI2CON1 = 0x262
                    0x0262                  _SPI2CON1 = 0x262
                    0x0262                  _SPI2CON1bits = 0x262
                    0x0264                  SPI2CON2 = 0x264
                    0x0264                  _SPI2CON2 = 0x264
                    0x0264                  _SPI2CON2bits = 0x264
                    0x0268                  SPI2BUF = 0x268
                    0x0268                  _SPI2BUF = 0x268
                    0x0280                  DCICON1 = 0x280
                    0x0280                  _DCICON1 = 0x280
                    0x0280                  _DCICON1bits = 0x280
                    0x0282                  DCICON2 = 0x282
                    0x0282                  _DCICON2 = 0x282
                    0x0282                  _DCICON2bits = 0x282
                    0x0284                  DCICON3 = 0x284
                    0x0284                  _DCICON3 = 0x284
                    0x0284                  _DCICON3bits = 0x284
                    0x0286                  DCISTAT = 0x286
                    0x0286                  _DCISTAT = 0x286
                    0x0286                  _DCISTATbits = 0x286
                    0x0288                  TSCON = 0x288
                    0x0288                  _TSCON = 0x288
                    0x0288                  _TSCONbits = 0x288
                    0x028c                  RSCON = 0x28c
                    0x028c                  _RSCON = 0x28c
                    0x028c                  _RSCONbits = 0x28c
                    0x0290                  RXBUF0 = 0x290
                    0x0290                  _RXBUF0 = 0x290
                    0x0292                  RXBUF1 = 0x292
                    0x0292                  _RXBUF1 = 0x292
                    0x0294                  RXBUF2 = 0x294
                    0x0294                  _RXBUF2 = 0x294
                    0x0296                  RXBUF3 = 0x296
                    0x0296                  _RXBUF3 = 0x296
                    0x0298                  TXBUF0 = 0x298
                    0x0298                  _TXBUF0 = 0x298
                    0x029a                  TXBUF1 = 0x29a
                    0x029a                  _TXBUF1 = 0x29a
                    0x029c                  TXBUF2 = 0x29c
                    0x029c                  _TXBUF2 = 0x29c
                    0x029e                  TXBUF3 = 0x29e
                    0x029e                  _TXBUF3 = 0x29e
                    0x02c0                  TRISA = 0x2c0
                    0x02c0                  _TRISA = 0x2c0
                    0x02c0                  _TRISAbits = 0x2c0
                    0x02c2                  PORTA = 0x2c2
                    0x02c2                  _PORTA = 0x2c2
                    0x02c2                  _PORTAbits = 0x2c2
                    0x02c4                  LATA = 0x2c4
                    0x02c4                  _LATA = 0x2c4
                    0x02c4                  _LATAbits = 0x2c4
                    0x02c6                  TRISB = 0x2c6
                    0x02c6                  _TRISB = 0x2c6
                    0x02c6                  _TRISBbits = 0x2c6
                    0x02c8                  PORTB = 0x2c8
                    0x02c8                  _PORTB = 0x2c8
                    0x02c8                  _PORTBbits = 0x2c8
                    0x02ca                  LATB = 0x2ca
                    0x02ca                  _LATB = 0x2ca
                    0x02ca                  _LATBbits = 0x2ca
                    0x02cc                  TRISC = 0x2cc
                    0x02cc                  _TRISC = 0x2cc
                    0x02cc                  _TRISCbits = 0x2cc
                    0x02ce                  PORTC = 0x2ce
                    0x02ce                  _PORTC = 0x2ce
                    0x02ce                  _PORTCbits = 0x2ce
                    0x02d0                  LATC = 0x2d0
                    0x02d0                  _LATC = 0x2d0
                    0x02d0                  _LATCbits = 0x2d0
                    0x02d2                  TRISD = 0x2d2
                    0x02d2                  _TRISD = 0x2d2
                    0x02d2                  _TRISDbits = 0x2d2
                    0x02d4                  PORTD = 0x2d4
                    0x02d4                  _PORTD = 0x2d4
                    0x02d4                  _PORTDbits = 0x2d4
                    0x02d6                  LATD = 0x2d6
                    0x02d6                  _LATD = 0x2d6
                    0x02d6                  _LATDbits = 0x2d6
                    0x02d8                  TRISE = 0x2d8
                    0x02d8                  _TRISE = 0x2d8
                    0x02d8                  _TRISEbits = 0x2d8
                    0x02da                  PORTE = 0x2da
                    0x02da                  _PORTE = 0x2da
                    0x02da                  _PORTEbits = 0x2da
                    0x02dc                  LATE = 0x2dc
                    0x02dc                  _LATE = 0x2dc
                    0x02dc                  _LATEbits = 0x2dc
                    0x02de                  TRISF = 0x2de
                    0x02de                  _TRISF = 0x2de
                    0x02de                  _TRISFbits = 0x2de
                    0x02e0                  PORTF = 0x2e0
                    0x02e0                  _PORTF = 0x2e0
                    0x02e0                  _PORTFbits = 0x2e0
                    0x02e2                  LATF = 0x2e2
                    0x02e2                  _LATF = 0x2e2
                    0x02e2                  _LATFbits = 0x2e2
                    0x02e4                  TRISG = 0x2e4
                    0x02e4                  _TRISG = 0x2e4
                    0x02e4                  _TRISGbits = 0x2e4
                    0x02e6                  PORTG = 0x2e6
                    0x02e6                  _PORTG = 0x2e6
                    0x02e6                  _PORTGbits = 0x2e6
                    0x02e8                  LATG = 0x2e8
                    0x02e8                  _LATG = 0x2e8
                    0x02e8                  _LATGbits = 0x2e8
                    0x0300                  ADC1BUF0 = 0x300
                    0x0300                  _ADC1BUF0 = 0x300
                    0x0300                  ADCBUF0 = 0x300
                    0x0300                  _ADCBUF0 = 0x300
                    0x0320                  AD1CON1 = 0x320
                    0x0320                  _AD1CON1 = 0x320
                    0x0320                  _AD1CON1bits = 0x320
                    0x0322                  AD1CON2 = 0x322
                    0x0322                  _AD1CON2 = 0x322
                    0x0322                  _AD1CON2bits = 0x322
                    0x0324                  AD1CON3 = 0x324
                    0x0324                  _AD1CON3 = 0x324
                    0x0324                  _AD1CON3bits = 0x324
                    0x0326                  AD1CHS123 = 0x326
                    0x0326                  _AD1CHS123 = 0x326
                    0x0326                  _AD1CHS123bits = 0x326
                    0x0328                  AD1CHS0 = 0x328
                    0x0328                  _AD1CHS0 = 0x328
                    0x0328                  _AD1CHS0bits = 0x328
                    0x032a                  AD1PCFGH = 0x32a
                    0x032a                  _AD1PCFGH = 0x32a
                    0x032a                  _AD1PCFGHbits = 0x32a
                    0x032c                  AD1PCFGL = 0x32c
                    0x032c                  _AD1PCFGL = 0x32c
                    0x032c                  _AD1PCFGLbits = 0x32c
                    0x032c                  ADPCFG = 0x32c
                    0x032c                  _ADPCFG = 0x32c
                    0x032c                  _ADPCFGbits = 0x32c
                    0x032e                  AD1CSSH = 0x32e
                    0x032e                  _AD1CSSH = 0x32e
                    0x032e                  _AD1CSSHbits = 0x32e
                    0x0330                  AD1CSSL = 0x330
                    0x0330                  _AD1CSSL = 0x330
                    0x0330                  _AD1CSSLbits = 0x330
                    0x0332                  AD1CON4 = 0x332
                    0x0332                  _AD1CON4 = 0x332
                    0x0332                  _AD1CON4bits = 0x332
                    0x0340                  ADC2BUF0 = 0x340
                    0x0340                  _ADC2BUF0 = 0x340
                    0x0360                  AD2CON1 = 0x360
                    0x0360                  _AD2CON1 = 0x360
                    0x0360                  _AD2CON1bits = 0x360
                    0x0362                  AD2CON2 = 0x362
                    0x0362                  _AD2CON2 = 0x362
                    0x0362                  _AD2CON2bits = 0x362
                    0x0364                  AD2CON3 = 0x364
                    0x0364                  _AD2CON3 = 0x364
                    0x0364                  _AD2CON3bits = 0x364
                    0x0366                  AD2CHS123 = 0x366
                    0x0366                  _AD2CHS123 = 0x366
                    0x0366                  _AD2CHS123bits = 0x366
                    0x0368                  AD2CHS0 = 0x368
                    0x0368                  _AD2CHS0 = 0x368
                    0x0368                  _AD2CHS0bits = 0x368
                    0x036c                  AD2PCFGL = 0x36c
                    0x036c                  _AD2PCFGL = 0x36c
                    0x036c                  _AD2PCFGLbits = 0x36c
                    0x0370                  AD2CSSL = 0x370
                    0x0370                  _AD2CSSL = 0x370
                    0x0370                  _AD2CSSLbits = 0x370
                    0x0372                  AD2CON4 = 0x372
                    0x0372                  _AD2CON4 = 0x372
                    0x0372                  _AD2CON4bits = 0x372
                    0x0380                  DMA0CON = 0x380
                    0x0380                  _DMA0CON = 0x380
                    0x0380                  _DMA0CONbits = 0x380
                    0x0382                  DMA0REQ = 0x382
                    0x0382                  _DMA0REQ = 0x382
                    0x0382                  _DMA0REQbits = 0x382
                    0x0384                  DMA0STA = 0x384
                    0x0384                  _DMA0STA = 0x384
                    0x0386                  DMA0STB = 0x386
                    0x0386                  _DMA0STB = 0x386
                    0x0388                  DMA0PAD = 0x388
                    0x0388                  _DMA0PAD = 0x388
                    0x038a                  DMA0CNT = 0x38a
                    0x038a                  _DMA0CNT = 0x38a
                    0x038c                  DMA1CON = 0x38c
                    0x038c                  _DMA1CON = 0x38c
                    0x038c                  _DMA1CONbits = 0x38c
                    0x038e                  DMA1REQ = 0x38e
                    0x038e                  _DMA1REQ = 0x38e
                    0x038e                  _DMA1REQbits = 0x38e
                    0x0390                  DMA1STA = 0x390
                    0x0390                  _DMA1STA = 0x390
                    0x0392                  DMA1STB = 0x392
                    0x0392                  _DMA1STB = 0x392
                    0x0394                  DMA1PAD = 0x394
                    0x0394                  _DMA1PAD = 0x394
                    0x0396                  DMA1CNT = 0x396
                    0x0396                  _DMA1CNT = 0x396
                    0x0398                  DMA2CON = 0x398
                    0x0398                  _DMA2CON = 0x398
                    0x0398                  _DMA2CONbits = 0x398
                    0x039a                  DMA2REQ = 0x39a
                    0x039a                  _DMA2REQ = 0x39a
                    0x039a                  _DMA2REQbits = 0x39a
                    0x039c                  DMA2STA = 0x39c
                    0x039c                  _DMA2STA = 0x39c
                    0x039e                  DMA2STB = 0x39e
                    0x039e                  _DMA2STB = 0x39e
                    0x03a0                  DMA2PAD = 0x3a0
                    0x03a0                  _DMA2PAD = 0x3a0
                    0x03a2                  DMA2CNT = 0x3a2
                    0x03a2                  _DMA2CNT = 0x3a2
                    0x03a4                  DMA3CON = 0x3a4
                    0x03a4                  _DMA3CON = 0x3a4
                    0x03a4                  _DMA3CONbits = 0x3a4
                    0x03a6                  DMA3REQ = 0x3a6
                    0x03a6                  _DMA3REQ = 0x3a6
                    0x03a6                  _DMA3REQbits = 0x3a6
                    0x03a8                  DMA3STA = 0x3a8
                    0x03a8                  _DMA3STA = 0x3a8
                    0x03aa                  DMA3STB = 0x3aa
                    0x03aa                  _DMA3STB = 0x3aa
                    0x03ac                  DMA3PAD = 0x3ac
                    0x03ac                  _DMA3PAD = 0x3ac
                    0x03ae                  DMA3CNT = 0x3ae
                    0x03ae                  _DMA3CNT = 0x3ae
                    0x03b0                  DMA4CON = 0x3b0
                    0x03b0                  _DMA4CON = 0x3b0
                    0x03b0                  _DMA4CONbits = 0x3b0
                    0x03b2                  DMA4REQ = 0x3b2
                    0x03b2                  _DMA4REQ = 0x3b2
                    0x03b2                  _DMA4REQbits = 0x3b2
                    0x03b4                  DMA4STA = 0x3b4
                    0x03b4                  _DMA4STA = 0x3b4
                    0x03b6                  DMA4STB = 0x3b6
                    0x03b6                  _DMA4STB = 0x3b6
                    0x03b8                  DMA4PAD = 0x3b8
                    0x03b8                  _DMA4PAD = 0x3b8
                    0x03ba                  DMA4CNT = 0x3ba
                    0x03ba                  _DMA4CNT = 0x3ba
                    0x03bc                  DMA5CON = 0x3bc
                    0x03bc                  _DMA5CON = 0x3bc
                    0x03bc                  _DMA5CONbits = 0x3bc
                    0x03be                  DMA5REQ = 0x3be
                    0x03be                  _DMA5REQ = 0x3be
                    0x03be                  _DMA5REQbits = 0x3be
                    0x03c0                  DMA5STA = 0x3c0
                    0x03c0                  _DMA5STA = 0x3c0
                    0x03c2                  DMA5STB = 0x3c2
                    0x03c2                  _DMA5STB = 0x3c2
                    0x03c4                  DMA5PAD = 0x3c4
                    0x03c4                  _DMA5PAD = 0x3c4
                    0x03c6                  DMA5CNT = 0x3c6
                    0x03c6                  _DMA5CNT = 0x3c6
                    0x03c8                  DMA6CON = 0x3c8
                    0x03c8                  _DMA6CON = 0x3c8
                    0x03c8                  _DMA6CONbits = 0x3c8
                    0x03ca                  DMA6REQ = 0x3ca
                    0x03ca                  _DMA6REQ = 0x3ca
                    0x03ca                  _DMA6REQbits = 0x3ca
                    0x03cc                  DMA6STA = 0x3cc
                    0x03cc                  _DMA6STA = 0x3cc
                    0x03ce                  DMA6STB = 0x3ce
                    0x03ce                  _DMA6STB = 0x3ce
                    0x03d0                  DMA6PAD = 0x3d0
                    0x03d0                  _DMA6PAD = 0x3d0
                    0x03d2                  DMA6CNT = 0x3d2
                    0x03d2                  _DMA6CNT = 0x3d2
                    0x03d4                  DMA7CON = 0x3d4
                    0x03d4                  _DMA7CON = 0x3d4
                    0x03d4                  _DMA7CONbits = 0x3d4
                    0x03d6                  DMA7REQ = 0x3d6
                    0x03d6                  _DMA7REQ = 0x3d6
                    0x03d6                  _DMA7REQbits = 0x3d6
                    0x03d8                  DMA7STA = 0x3d8
                    0x03d8                  _DMA7STA = 0x3d8
                    0x03da                  DMA7STB = 0x3da
                    0x03da                  _DMA7STB = 0x3da
                    0x03dc                  DMA7PAD = 0x3dc
                    0x03dc                  _DMA7PAD = 0x3dc
                    0x03de                  DMA7CNT = 0x3de
                    0x03de                  _DMA7CNT = 0x3de
                    0x03e0                  DMACS0 = 0x3e0
                    0x03e0                  _DMACS0 = 0x3e0
                    0x03e0                  _DMACS0bits = 0x3e0
                    0x03e2                  DMACS1 = 0x3e2
                    0x03e2                  _DMACS1 = 0x3e2
                    0x03e2                  _DMACS1bits = 0x3e2
                    0x03e4                  DSADR = 0x3e4
                    0x03e4                  _DSADR = 0x3e4
                    0x0400                  C1CTRL1 = 0x400
                    0x0400                  _C1CTRL1 = 0x400
                    0x0400                  _C1CTRL1bits = 0x400
                    0x0402                  C1CTRL2 = 0x402
                    0x0402                  _C1CTRL2 = 0x402
                    0x0402                  _C1CTRL2bits = 0x402
                    0x0404                  C1VEC = 0x404
                    0x0404                  _C1VEC = 0x404
                    0x0404                  _C1VECbits = 0x404
                    0x0406                  C1FCTRL = 0x406
                    0x0406                  _C1FCTRL = 0x406
                    0x0406                  _C1FCTRLbits = 0x406
                    0x0408                  C1FIFO = 0x408
                    0x0408                  _C1FIFO = 0x408
                    0x0408                  _C1FIFObits = 0x408
                    0x040a                  C1INTF = 0x40a
                    0x040a                  _C1INTF = 0x40a
                    0x040a                  _C1INTFbits = 0x40a
                    0x040c                  C1INTE = 0x40c
                    0x040c                  _C1INTE = 0x40c
                    0x040c                  _C1INTEbits = 0x40c
                    0x040e                  C1EC = 0x40e
                    0x040e                  _C1EC = 0x40e
                    0x040e                  _C1ECbits = 0x40e
                    0x040e                  C1RERRCNT = 0x40e
                    0x040e                  _C1RERRCNT = 0x40e
                    0x040f                  C1TERRCNT = 0x40f
                    0x040f                  _C1TERRCNT = 0x40f
                    0x0410                  C1CFG1 = 0x410
                    0x0410                  _C1CFG1 = 0x410
                    0x0410                  _C1CFG1bits = 0x410
                    0x0412                  C1CFG2 = 0x412
                    0x0412                  _C1CFG2 = 0x412
                    0x0412                  _C1CFG2bits = 0x412
                    0x0414                  C1FEN1 = 0x414
                    0x0414                  _C1FEN1 = 0x414
                    0x0414                  _C1FEN1bits = 0x414
                    0x0418                  C1FMSKSEL1 = 0x418
                    0x0418                  _C1FMSKSEL1 = 0x418
                    0x0418                  _C1FMSKSEL1bits = 0x418
                    0x041a                  C1FMSKSEL2 = 0x41a
                    0x041a                  _C1FMSKSEL2 = 0x41a
                    0x041a                  _C1FMSKSEL2bits = 0x41a
                    0x0420                  C1BUFPNT1 = 0x420
                    0x0420                  _C1BUFPNT1 = 0x420
                    0x0420                  _C1BUFPNT1bits = 0x420
                    0x0420                  C1RXFUL1 = 0x420
                    0x0420                  _C1RXFUL1 = 0x420
                    0x0420                  _C1RXFUL1bits = 0x420
                    0x0422                  C1BUFPNT2 = 0x422
                    0x0422                  _C1BUFPNT2 = 0x422
                    0x0422                  _C1BUFPNT2bits = 0x422
                    0x0422                  C1RXFUL2 = 0x422
                    0x0422                  _C1RXFUL2 = 0x422
                    0x0422                  _C1RXFUL2bits = 0x422
                    0x0424                  C1BUFPNT3 = 0x424
                    0x0424                  _C1BUFPNT3 = 0x424
                    0x0424                  _C1BUFPNT3bits = 0x424
                    0x0426                  C1BUFPNT4 = 0x426
                    0x0426                  _C1BUFPNT4 = 0x426
                    0x0426                  _C1BUFPNT4bits = 0x426
                    0x0428                  C1RXOVF1 = 0x428
                    0x0428                  _C1RXOVF1 = 0x428
                    0x0428                  _C1RXOVF1bits = 0x428
                    0x042a                  C1RXOVF2 = 0x42a
                    0x042a                  _C1RXOVF2 = 0x42a
                    0x042a                  _C1RXOVF2bits = 0x42a
                    0x0430                  C1RXM0SID = 0x430
                    0x0430                  _C1RXM0SID = 0x430
                    0x0430                  _C1RXM0SIDbits = 0x430
                    0x0430                  C1TR01CON = 0x430
                    0x0430                  _C1TR01CON = 0x430
                    0x0430                  _C1TR01CONbits = 0x430
                    0x0432                  C1RXM0EID = 0x432
                    0x0432                  _C1RXM0EID = 0x432
                    0x0432                  _C1RXM0EIDbits = 0x432
                    0x0432                  C1TR23CON = 0x432
                    0x0432                  _C1TR23CON = 0x432
                    0x0432                  _C1TR23CONbits = 0x432
                    0x0434                  C1RXM1SID = 0x434
                    0x0434                  _C1RXM1SID = 0x434
                    0x0434                  _C1RXM1SIDbits = 0x434
                    0x0434                  C1TR45CON = 0x434
                    0x0434                  _C1TR45CON = 0x434
                    0x0434                  _C1TR45CONbits = 0x434
                    0x0436                  C1RXM1EID = 0x436
                    0x0436                  _C1RXM1EID = 0x436
                    0x0436                  _C1RXM1EIDbits = 0x436
                    0x0436                  C1TR67CON = 0x436
                    0x0436                  _C1TR67CON = 0x436
                    0x0436                  _C1TR67CONbits = 0x436
                    0x0438                  C1RXM2SID = 0x438
                    0x0438                  _C1RXM2SID = 0x438
                    0x0438                  _C1RXM2SIDbits = 0x438
                    0x043a                  C1RXM2EID = 0x43a
                    0x043a                  _C1RXM2EID = 0x43a
                    0x043a                  _C1RXM2EIDbits = 0x43a
                    0x0440                  C1RXD = 0x440
                    0x0440                  _C1RXD = 0x440
                    0x0440                  C1RXF0SID = 0x440
                    0x0440                  _C1RXF0SID = 0x440
                    0x0440                  _C1RXF0SIDbits = 0x440
                    0x0442                  C1RXF0EID = 0x442
                    0x0442                  _C1RXF0EID = 0x442
                    0x0442                  _C1RXF0EIDbits = 0x442
                    0x0442                  C1TXD = 0x442
                    0x0442                  _C1TXD = 0x442
                    0x0444                  C1RXF1SID = 0x444
                    0x0444                  _C1RXF1SID = 0x444
                    0x0444                  _C1RXF1SIDbits = 0x444
                    0x0446                  C1RXF1EID = 0x446
                    0x0446                  _C1RXF1EID = 0x446
                    0x0446                  _C1RXF1EIDbits = 0x446
                    0x0448                  C1RXF2SID = 0x448
                    0x0448                  _C1RXF2SID = 0x448
                    0x0448                  _C1RXF2SIDbits = 0x448
                    0x044a                  C1RXF2EID = 0x44a
                    0x044a                  _C1RXF2EID = 0x44a
                    0x044a                  _C1RXF2EIDbits = 0x44a
                    0x044c                  C1RXF3SID = 0x44c
                    0x044c                  _C1RXF3SID = 0x44c
                    0x044c                  _C1RXF3SIDbits = 0x44c
                    0x044e                  C1RXF3EID = 0x44e
                    0x044e                  _C1RXF3EID = 0x44e
                    0x044e                  _C1RXF3EIDbits = 0x44e
                    0x0450                  C1RXF4SID = 0x450
                    0x0450                  _C1RXF4SID = 0x450
                    0x0450                  _C1RXF4SIDbits = 0x450
                    0x0452                  C1RXF4EID = 0x452
                    0x0452                  _C1RXF4EID = 0x452
                    0x0452                  _C1RXF4EIDbits = 0x452
                    0x0454                  C1RXF5SID = 0x454
                    0x0454                  _C1RXF5SID = 0x454
                    0x0454                  _C1RXF5SIDbits = 0x454
                    0x0456                  C1RXF5EID = 0x456
                    0x0456                  _C1RXF5EID = 0x456
                    0x0456                  _C1RXF5EIDbits = 0x456
                    0x0458                  C1RXF6SID = 0x458
                    0x0458                  _C1RXF6SID = 0x458
                    0x0458                  _C1RXF6SIDbits = 0x458
                    0x045a                  C1RXF6EID = 0x45a
                    0x045a                  _C1RXF6EID = 0x45a
                    0x045a                  _C1RXF6EIDbits = 0x45a
                    0x045c                  C1RXF7SID = 0x45c
                    0x045c                  _C1RXF7SID = 0x45c
                    0x045c                  _C1RXF7SIDbits = 0x45c
                    0x045e                  C1RXF7EID = 0x45e
                    0x045e                  _C1RXF7EID = 0x45e
                    0x045e                  _C1RXF7EIDbits = 0x45e
                    0x0460                  C1RXF8SID = 0x460
                    0x0460                  _C1RXF8SID = 0x460
                    0x0460                  _C1RXF8SIDbits = 0x460
                    0x0462                  C1RXF8EID = 0x462
                    0x0462                  _C1RXF8EID = 0x462
                    0x0462                  _C1RXF8EIDbits = 0x462
                    0x0464                  C1RXF9SID = 0x464
                    0x0464                  _C1RXF9SID = 0x464
                    0x0464                  _C1RXF9SIDbits = 0x464
                    0x0466                  C1RXF9EID = 0x466
                    0x0466                  _C1RXF9EID = 0x466
                    0x0466                  _C1RXF9EIDbits = 0x466
                    0x0468                  C1RXF10SID = 0x468
                    0x0468                  _C1RXF10SID = 0x468
                    0x0468                  _C1RXF10SIDbits = 0x468
                    0x046a                  C1RXF10EID = 0x46a
                    0x046a                  _C1RXF10EID = 0x46a
                    0x046a                  _C1RXF10EIDbits = 0x46a
                    0x046c                  C1RXF11SID = 0x46c
                    0x046c                  _C1RXF11SID = 0x46c
                    0x046c                  _C1RXF11SIDbits = 0x46c
                    0x046e                  C1RXF11EID = 0x46e
                    0x046e                  _C1RXF11EID = 0x46e
                    0x046e                  _C1RXF11EIDbits = 0x46e
                    0x0470                  C1RXF12SID = 0x470
                    0x0470                  _C1RXF12SID = 0x470
                    0x0470                  _C1RXF12SIDbits = 0x470
                    0x0472                  C1RXF12EID = 0x472
                    0x0472                  _C1RXF12EID = 0x472
                    0x0472                  _C1RXF12EIDbits = 0x472
                    0x0474                  C1RXF13SID = 0x474
                    0x0474                  _C1RXF13SID = 0x474
                    0x0474                  _C1RXF13SIDbits = 0x474
                    0x0476                  C1RXF13EID = 0x476
                    0x0476                  _C1RXF13EID = 0x476
                    0x0476                  _C1RXF13EIDbits = 0x476
                    0x0478                  C1RXF14SID = 0x478
                    0x0478                  _C1RXF14SID = 0x478
                    0x0478                  _C1RXF14SIDbits = 0x478
                    0x047a                  C1RXF14EID = 0x47a
                    0x047a                  _C1RXF14EID = 0x47a
                    0x047a                  _C1RXF14EIDbits = 0x47a
                    0x047c                  C1RXF15SID = 0x47c
                    0x047c                  _C1RXF15SID = 0x47c
                    0x047c                  _C1RXF15SIDbits = 0x47c
                    0x047e                  C1RXF15EID = 0x47e
                    0x047e                  _C1RXF15EID = 0x47e
                    0x047e                  _C1RXF15EIDbits = 0x47e
                    0x0500                  C2CTRL1 = 0x500
                    0x0500                  _C2CTRL1 = 0x500
                    0x0500                  _C2CTRL1bits = 0x500
                    0x0502                  C2CTRL2 = 0x502
                    0x0502                  _C2CTRL2 = 0x502
                    0x0502                  _C2CTRL2bits = 0x502
                    0x0504                  C2VEC = 0x504
                    0x0504                  _C2VEC = 0x504
                    0x0504                  _C2VECbits = 0x504
                    0x0506                  C2FCTRL = 0x506
                    0x0506                  _C2FCTRL = 0x506
                    0x0506                  _C2FCTRLbits = 0x506
                    0x0508                  C2FIFO = 0x508
                    0x0508                  _C2FIFO = 0x508
                    0x0508                  _C2FIFObits = 0x508
                    0x050a                  C2INTF = 0x50a
                    0x050a                  _C2INTF = 0x50a
                    0x050a                  _C2INTFbits = 0x50a
                    0x050c                  C2INTE = 0x50c
                    0x050c                  _C2INTE = 0x50c
                    0x050c                  _C2INTEbits = 0x50c
                    0x050e                  C2EC = 0x50e
                    0x050e                  _C2EC = 0x50e
                    0x050e                  _C2ECbits = 0x50e
                    0x050e                  C2RERRCNT = 0x50e
                    0x050e                  _C2RERRCNT = 0x50e
                    0x050f                  C2TERRCNT = 0x50f
                    0x050f                  _C2TERRCNT = 0x50f
                    0x0510                  C2CFG1 = 0x510
                    0x0510                  _C2CFG1 = 0x510
                    0x0510                  _C2CFG1bits = 0x510
                    0x0512                  C2CFG2 = 0x512
                    0x0512                  _C2CFG2 = 0x512
                    0x0512                  _C2CFG2bits = 0x512
                    0x0514                  C2FEN1 = 0x514
                    0x0514                  _C2FEN1 = 0x514
                    0x0514                  _C2FEN1bits = 0x514
                    0x0518                  C2FMSKSEL1 = 0x518
                    0x0518                  _C2FMSKSEL1 = 0x518
                    0x0518                  _C2FMSKSEL1bits = 0x518
                    0x051a                  C2FMSKSEL2 = 0x51a
                    0x051a                  _C2FMSKSEL2 = 0x51a
                    0x051a                  _C2FMSKSEL2bits = 0x51a
                    0x0520                  C2BUFPNT1 = 0x520
                    0x0520                  _C2BUFPNT1 = 0x520
                    0x0520                  _C2BUFPNT1bits = 0x520
                    0x0520                  C2RXFUL1 = 0x520
                    0x0520                  _C2RXFUL1 = 0x520
                    0x0520                  _C2RXFUL1bits = 0x520
                    0x0522                  C2BUFPNT2 = 0x522
                    0x0522                  _C2BUFPNT2 = 0x522
                    0x0522                  _C2BUFPNT2bits = 0x522
                    0x0522                  C2RXFUL2 = 0x522
                    0x0522                  _C2RXFUL2 = 0x522
                    0x0522                  _C2RXFUL2bits = 0x522
                    0x0524                  C2BUFPNT3 = 0x524
                    0x0524                  _C2BUFPNT3 = 0x524
                    0x0524                  _C2BUFPNT3bits = 0x524
                    0x0526                  C2BUFPNT4 = 0x526
                    0x0526                  _C2BUFPNT4 = 0x526
                    0x0526                  _C2BUFPNT4bits = 0x526
                    0x0528                  C2RXOVF1 = 0x528
                    0x0528                  _C2RXOVF1 = 0x528
                    0x0528                  _C2RXOVF1bits = 0x528
                    0x052a                  C2RXOVF2 = 0x52a
                    0x052a                  _C2RXOVF2 = 0x52a
                    0x052a                  _C2RXOVF2bits = 0x52a
                    0x0530                  C2RXM0SID = 0x530
                    0x0530                  _C2RXM0SID = 0x530
                    0x0530                  _C2RXM0SIDbits = 0x530
                    0x0530                  C2TR01CON = 0x530
                    0x0530                  _C2TR01CON = 0x530
                    0x0530                  _C2TR01CONbits = 0x530
                    0x0532                  C2RXM0EID = 0x532
                    0x0532                  _C2RXM0EID = 0x532
                    0x0532                  _C2RXM0EIDbits = 0x532
                    0x0532                  C2TR23CON = 0x532
                    0x0532                  _C2TR23CON = 0x532
                    0x0532                  _C2TR23CONbits = 0x532
                    0x0534                  C2RXM1SID = 0x534
                    0x0534                  _C2RXM1SID = 0x534
                    0x0534                  _C2RXM1SIDbits = 0x534
                    0x0534                  C2TR45CON = 0x534
                    0x0534                  _C2TR45CON = 0x534
                    0x0534                  _C2TR45CONbits = 0x534
                    0x0536                  C2RXM1EID = 0x536
                    0x0536                  _C2RXM1EID = 0x536
                    0x0536                  _C2RXM1EIDbits = 0x536
                    0x0536                  C2TR67CON = 0x536
                    0x0536                  _C2TR67CON = 0x536
                    0x0536                  _C2TR67CONbits = 0x536
                    0x0538                  C2RXM2SID = 0x538
                    0x0538                  _C2RXM2SID = 0x538
                    0x0538                  _C2RXM2SIDbits = 0x538
                    0x053a                  C2RXM2EID = 0x53a
                    0x053a                  _C2RXM2EID = 0x53a
                    0x053a                  _C2RXM2EIDbits = 0x53a
                    0x0540                  C2RXD = 0x540
                    0x0540                  _C2RXD = 0x540
                    0x0540                  C2RXF0SID = 0x540
                    0x0540                  _C2RXF0SID = 0x540
                    0x0540                  _C2RXF0SIDbits = 0x540
                    0x0542                  C2RXF0EID = 0x542
                    0x0542                  _C2RXF0EID = 0x542
                    0x0542                  _C2RXF0EIDbits = 0x542
                    0x0542                  C2TXD = 0x542
                    0x0542                  _C2TXD = 0x542
                    0x0544                  C2RXF1SID = 0x544
                    0x0544                  _C2RXF1SID = 0x544
                    0x0544                  _C2RXF1SIDbits = 0x544
                    0x0546                  C2RXF1EID = 0x546
                    0x0546                  _C2RXF1EID = 0x546
                    0x0546                  _C2RXF1EIDbits = 0x546
                    0x0548                  C2RXF2SID = 0x548
                    0x0548                  _C2RXF2SID = 0x548
                    0x0548                  _C2RXF2SIDbits = 0x548
                    0x054a                  C2RXF2EID = 0x54a
                    0x054a                  _C2RXF2EID = 0x54a
                    0x054a                  _C2RXF2EIDbits = 0x54a
                    0x054c                  C2RXF3SID = 0x54c
                    0x054c                  _C2RXF3SID = 0x54c
                    0x054c                  _C2RXF3SIDbits = 0x54c
                    0x054e                  C2RXF3EID = 0x54e
                    0x054e                  _C2RXF3EID = 0x54e
                    0x054e                  _C2RXF3EIDbits = 0x54e
                    0x0550                  C2RXF4SID = 0x550
                    0x0550                  _C2RXF4SID = 0x550
                    0x0550                  _C2RXF4SIDbits = 0x550
                    0x0552                  C2RXF4EID = 0x552
                    0x0552                  _C2RXF4EID = 0x552
                    0x0552                  _C2RXF4EIDbits = 0x552
                    0x0554                  C2RXF5SID = 0x554
                    0x0554                  _C2RXF5SID = 0x554
                    0x0554                  _C2RXF5SIDbits = 0x554
                    0x0556                  C2RXF5EID = 0x556
                    0x0556                  _C2RXF5EID = 0x556
                    0x0556                  _C2RXF5EIDbits = 0x556
                    0x0558                  C2RXF6SID = 0x558
                    0x0558                  _C2RXF6SID = 0x558
                    0x0558                  _C2RXF6SIDbits = 0x558
                    0x055a                  C2RXF6EID = 0x55a
                    0x055a                  _C2RXF6EID = 0x55a
                    0x055a                  _C2RXF6EIDbits = 0x55a
                    0x055c                  C2RXF7SID = 0x55c
                    0x055c                  _C2RXF7SID = 0x55c
                    0x055c                  _C2RXF7SIDbits = 0x55c
                    0x055e                  C2RXF7EID = 0x55e
                    0x055e                  _C2RXF7EID = 0x55e
                    0x055e                  _C2RXF7EIDbits = 0x55e
                    0x0560                  C2RXF8SID = 0x560
                    0x0560                  _C2RXF8SID = 0x560
                    0x0560                  _C2RXF8SIDbits = 0x560
                    0x0562                  C2RXF8EID = 0x562
                    0x0562                  _C2RXF8EID = 0x562
                    0x0562                  _C2RXF8EIDbits = 0x562
                    0x0564                  C2RXF9SID = 0x564
                    0x0564                  _C2RXF9SID = 0x564
                    0x0564                  _C2RXF9SIDbits = 0x564
                    0x0566                  C2RXF9EID = 0x566
                    0x0566                  _C2RXF9EID = 0x566
                    0x0566                  _C2RXF9EIDbits = 0x566
                    0x0568                  C2RXF10SID = 0x568
                    0x0568                  _C2RXF10SID = 0x568
                    0x0568                  _C2RXF10SIDbits = 0x568
                    0x056a                  C2RXF10EID = 0x56a
                    0x056a                  _C2RXF10EID = 0x56a
                    0x056a                  _C2RXF10EIDbits = 0x56a
                    0x056c                  C2RXF11SID = 0x56c
                    0x056c                  _C2RXF11SID = 0x56c
                    0x056c                  _C2RXF11SIDbits = 0x56c
                    0x056e                  C2RXF11EID = 0x56e
                    0x056e                  _C2RXF11EID = 0x56e
                    0x056e                  _C2RXF11EIDbits = 0x56e
                    0x0570                  C2RXF12SID = 0x570
                    0x0570                  _C2RXF12SID = 0x570
                    0x0570                  _C2RXF12SIDbits = 0x570
                    0x0572                  C2RXF12EID = 0x572
                    0x0572                  _C2RXF12EID = 0x572
                    0x0572                  _C2RXF12EIDbits = 0x572
                    0x0574                  C2RXF13SID = 0x574
                    0x0574                  _C2RXF13SID = 0x574
                    0x0574                  _C2RXF13SIDbits = 0x574
                    0x0576                  C2RXF13EID = 0x576
                    0x0576                  _C2RXF13EID = 0x576
                    0x0576                  _C2RXF13EIDbits = 0x576
                    0x0578                  C2RXF14SID = 0x578
                    0x0578                  _C2RXF14SID = 0x578
                    0x0578                  _C2RXF14SIDbits = 0x578
                    0x057a                  C2RXF14EID = 0x57a
                    0x057a                  _C2RXF14EID = 0x57a
                    0x057a                  _C2RXF14EIDbits = 0x57a
                    0x057c                  C2RXF15SID = 0x57c
                    0x057c                  _C2RXF15SID = 0x57c
                    0x057c                  _C2RXF15SIDbits = 0x57c
                    0x057e                  C2RXF15EID = 0x57e
                    0x057e                  _C2RXF15EID = 0x57e
                    0x057e                  _C2RXF15EIDbits = 0x57e
                    0x06c0                  ODCA = 0x6c0
                    0x06c0                  _ODCA = 0x6c0
                    0x06c0                  _ODCAbits = 0x6c0
                    0x06d2                  ODCD = 0x6d2
                    0x06d2                  _ODCD = 0x6d2
                    0x06d2                  _ODCDbits = 0x6d2
                    0x06de                  ODCF = 0x6de
                    0x06de                  _ODCF = 0x6de
                    0x06de                  _ODCFbits = 0x6de
                    0x06e4                  ODCG = 0x6e4
                    0x06e4                  _ODCG = 0x6e4
                    0x06e4                  _ODCGbits = 0x6e4
                    0x0740                  RCON = 0x740
                    0x0740                  _RCON = 0x740
                    0x0740                  _RCONbits = 0x740
                    0x0742                  OSCCON = 0x742
                    0x0742                  _OSCCON = 0x742
                    0x0742                  _OSCCONbits = 0x742
                    0x0742                  OSCCONL = 0x742
                    0x0742                  _OSCCONL = 0x742
                    0x0743                  OSCCONH = 0x743
                    0x0743                  _OSCCONH = 0x743
                    0x0744                  CLKDIV = 0x744
                    0x0744                  _CLKDIV = 0x744
                    0x0744                  _CLKDIVbits = 0x744
                    0x0746                  PLLFBD = 0x746
                    0x0746                  _PLLFBD = 0x746
                    0x0746                  _PLLFBDbits = 0x746
                    0x0748                  OSCTUN = 0x748
                    0x0748                  _OSCTUN = 0x748
                    0x0748                  _OSCTUNbits = 0x748
                    0x0750                  BSRAM = 0x750
                    0x0750                  _BSRAM = 0x750
                    0x0750                  _BSRAMbits = 0x750
                    0x0752                  SSRAM = 0x752
                    0x0752                  _SSRAM = 0x752
                    0x0752                  _SSRAMbits = 0x752
                    0x0760                  NVMCON = 0x760
                    0x0760                  _NVMCON = 0x760
                    0x0760                  _NVMCONbits = 0x760
                    0x0766                  NVMKEY = 0x766
                    0x0766                  _NVMKEY = 0x766
                    0x0770                  PMD1 = 0x770
                    0x0770                  _PMD1 = 0x770
                    0x0770                  _PMD1bits = 0x770
                    0x0772                  PMD2 = 0x772
                    0x0772                  _PMD2 = 0x772
                    0x0772                  _PMD2bits = 0x772
                    0x0774                  PMD3 = 0x774
                    0x0774                  _PMD3 = 0x774
                    0x0774                  _PMD3bits = 0x774
                    0x0022                  ACCA = 0x22
                    0x0022                  _ACCA = 0x22
                    0x0028                  ACCB = 0x28
                    0x0028                  _ACCB = 0x28
                    0x0440                  CAN1 = 0x440
                    0x0440                  _CAN1 = 0x440
                    0x0540                  CAN2 = 0x540
                    0x0540                  _CAN2 = 0x540
                    0x0140                  IC1 = 0x140
                    0x0140                  _IC1 = 0x140
                    0x0144                  IC2 = 0x144
                    0x0144                  _IC2 = 0x144
                    0x0148                  IC3 = 0x148
                    0x0148                  _IC3 = 0x148
                    0x014c                  IC4 = 0x14c
                    0x014c                  _IC4 = 0x14c
                    0x0150                  IC5 = 0x150
                    0x0150                  _IC5 = 0x150
                    0x0154                  IC6 = 0x154
                    0x0154                  _IC6 = 0x154
                    0x0158                  IC7 = 0x158
                    0x0158                  _IC7 = 0x158
                    0x015c                  IC8 = 0x15c
                    0x015c                  _IC8 = 0x15c
                    0x0180                  OC1 = 0x180
                    0x0180                  _OC1 = 0x180
                    0x0186                  OC2 = 0x186
                    0x0186                  _OC2 = 0x186
                    0x018c                  OC3 = 0x18c
                    0x018c                  _OC3 = 0x18c
                    0x0192                  OC4 = 0x192
                    0x0192                  _OC4 = 0x192
                    0x0198                  OC5 = 0x198
                    0x0198                  _OC5 = 0x198
                    0x019e                  OC6 = 0x19e
                    0x019e                  _OC6 = 0x19e
                    0x01a4                  OC7 = 0x1a4
                    0x01a4                  _OC7 = 0x1a4
                    0x01aa                  OC8 = 0x1aa
                    0x01aa                  _OC8 = 0x1aa
                    0x0240                  SPI1 = 0x240
                    0x0240                  _SPI1 = 0x240
                    0x0260                  SPI2 = 0x260
                    0x0260                  _SPI2 = 0x260
                    0x0220                  UART1 = 0x220
                    0x0220                  _UART1 = 0x220
                    0x0230                  UART2 = 0x230
                    0x0230                  _UART2 = 0x230
START GROUP
LOAD /opt/microchip/xc16/v1.10/bin/bin/../../lib/liblega-pic30-elf.a
LOAD /opt/microchip/xc16/v1.10/bin/bin/../../lib/libm-elf.a
LOAD /opt/microchip/xc16/v1.10/bin/bin/../../lib/liblega-c-elf.a
END GROUP
OUTPUT(dist/default/production/RollPitchYaw-udb6.X.production.elf elf32-pic30)
LOAD FGS
LOAD jump_table
LOAD default_isr
LOAD heap
LOAD data_init

.debug_pubtypes
                  0x0003f0       0x15a1
 .debug_pubtypes
                  0x0003f0         0xa5 build/default/production/_ext/1077471063/estWind.o
 .debug_pubtypes
                  0x000495         0x81 build/default/production/_ext/1077471063/estYawDrift.o
 .debug_pubtypes
                  0x000516         0xef build/default/production/_ext/1077471063/gpsParseCommon.o
 .debug_pubtypes
                  0x000605         0x88 build/default/production/_ext/1077471063/gpsParseSTD.o
 .debug_pubtypes
                  0x00068d         0x12 build/default/production/_ext/1077471063/gpsParseUBX.o
 .debug_pubtypes
                  0x00069f         0x70 build/default/production/_ext/1077471063/mathlibNAV.o
 .debug_pubtypes
                  0x00070f         0x7f build/default/production/_ext/1077471063/rmat.o
 .debug_pubtypes
                  0x00078e         0xbf build/default/production/_ext/1077471063/libDCM.o
 .debug_pubtypes
                  0x00084d         0x97 build/default/production/_ext/1077471063/deadReckoning.o
 .debug_pubtypes
                  0x0008e4         0x53 build/default/production/_ext/1077471063/estAltitude.o
 .debug_pubtypes
                  0x000937         0x12 build/default/production/_ext/1077471063/gpsParseMTEK.o
 .debug_pubtypes
                  0x000949         0x12 build/default/production/_ext/1077471063/gpsParseNMEA.o
 .debug_pubtypes
                  0x00095b        0x1ed build/default/production/_ext/1077454706/background.o
 .debug_pubtypes
                  0x000b48         0xac build/default/production/_ext/1077454706/libUDB.o
 .debug_pubtypes
                  0x000bf4         0x12 build/default/production/_ext/1077454706/analog2digital_udb4.o
 .debug_pubtypes
                  0x000c06        0x143 build/default/production/_ext/1077454706/servoOut.o
 .debug_pubtypes
                  0x000d49        0x117 build/default/production/_ext/1077454706/mpu6000.o
 .debug_pubtypes
                  0x000e60        0x252 build/default/production/_ext/1077454706/analog2digital_udb5.o
 .debug_pubtypes
                  0x0010b2         0x69 build/default/production/_ext/1077454706/eeprom_udb4.o
 .debug_pubtypes
                  0x00111b         0x1e build/default/production/_ext/1077454706/magnetometer.o
 .debug_pubtypes
                  0x001139         0xf2 build/default/production/_ext/1077454706/mcu.o
 .debug_pubtypes
                  0x00122b        0x2df build/default/production/_ext/1077454706/radioIn.o
 .debug_pubtypes
                  0x00150a        0x1ac build/default/production/_ext/1077454706/serialIO.o
 .debug_pubtypes
                  0x0016b6        0x10e build/default/production/_ext/1077454706/mpu_spi.o
 .debug_pubtypes
                  0x0017c4         0x12 build/default/production/_ext/1077454706/analogs.o
 .debug_pubtypes
                  0x0017d6         0x72 build/default/production/_ext/1077454706/heartbeat.o
 .debug_pubtypes
                  0x001848        0x149 build/default/production/_ext/1472/main.o

__c30_signature
                  0x001992        0x282
 __c30_signature
                  0x001992          0x6 build/default/production/_ext/1077471063/estWind.o
 __c30_signature
                  0x001998          0x6 build/default/production/_ext/1077471063/estYawDrift.o
 __c30_signature
                  0x00199e          0x6 build/default/production/_ext/1077471063/gpsParseCommon.o
 __c30_signature
                  0x0019a4          0x6 build/default/production/_ext/1077471063/gpsParseSTD.o
 __c30_signature
                  0x0019aa          0x6 build/default/production/_ext/1077471063/gpsParseUBX.o
 __c30_signature
                  0x0019b0          0x6 build/default/production/_ext/1077471063/mathlibNAV.o
 __c30_signature
                  0x0019b6          0x6 build/default/production/_ext/1077471063/rmat.o
 __c30_signature
                  0x0019bc          0x6 build/default/production/_ext/1077471063/libDCM.o
 __c30_signature
                  0x0019c2          0x6 build/default/production/_ext/1077471063/deadReckoning.o
 __c30_signature
                  0x0019c8          0x6 build/default/production/_ext/1077471063/estAltitude.o
 __c30_signature
                  0x0019ce          0x6 build/default/production/_ext/1077471063/gpsParseMTEK.o
 __c30_signature
                  0x0019d4          0x6 build/default/production/_ext/1077471063/gpsParseNMEA.o
 __c30_signature
                  0x0019da          0x6 build/default/production/_ext/1077454706/background.o
 __c30_signature
                  0x0019e0          0x6 build/default/production/_ext/1077454706/libUDB.o
 __c30_signature
                  0x0019e6          0x6 build/default/production/_ext/1077454706/analog2digital_udb4.o
 __c30_signature
                  0x0019ec          0x6 build/default/production/_ext/1077454706/servoOut.o
 __c30_signature
                  0x0019f2          0x6 build/default/production/_ext/1077454706/mpu6000.o
 __c30_signature
                  0x0019f8          0x6 build/default/production/_ext/1077454706/analog2digital_udb5.o
 __c30_signature
                  0x0019fe          0x6 build/default/production/_ext/1077454706/eeprom_udb4.o
 __c30_signature
                  0x001a04          0x6 build/default/production/_ext/1077454706/magnetometer.o
 __c30_signature
                  0x001a0a          0x6 build/default/production/_ext/1077454706/mcu.o
 __c30_signature
                  0x001a10          0x6 build/default/production/_ext/1077454706/radioIn.o
 __c30_signature
                  0x001a16          0x6 build/default/production/_ext/1077454706/serialIO.o
 __c30_signature
                  0x001a1c          0x6 build/default/production/_ext/1077454706/mpu_spi.o
 __c30_signature
                  0x001a22          0x6 build/default/production/_ext/1077454706/analogs.o
 __c30_signature
                  0x001a28          0x6 build/default/production/_ext/1077454706/heartbeat.o
 __c30_signature
                  0x001a2e          0x6 build/default/production/_ext/1472/main.o
 __c30_signature
                  0x001a34          0x6 /opt/microchip/xc16/v1.10/bin/bin/../../lib/dsPIC33F/libp33FJ256GP710A-elf.a(CloseSPI2.o)
 __c30_signature
                  0x001a3a          0x6 /opt/microchip/xc16/v1.10/bin/bin/../../lib/dsPIC33F/libp33FJ256GP710A-elf.a(ConfigIntSPI2.o)
 __c30_signature
                  0x001a40          0x6 /opt/microchip/xc16/v1.10/bin/bin/../../lib/dsPIC33F/libp33FJ256GP710A-elf.a(OpenSPI2.o)
 __c30_signature
                  0x001a46          0x6 /opt/microchip/xc16/v1.10/bin/bin/../../lib/liblega-pic30-elf.a(crt0_standard.o)
 __c30_signature
                  0x001a4c          0x6 /opt/microchip/xc16/v1.10/bin/bin/../../lib/liblega-pic30-elf.a(data_init_standard.o)
 __c30_signature
                  0x001a52          0x6 /opt/microchip/xc16/v1.10/bin/bin/../../lib/liblega-pic30-elf.a(delay32.Leo)
 __c30_signature
                  0x001a58          0x6 /opt/microchip/xc16/v1.10/bin/bin/../../lib/libm-elf.a(addsf3.eo)
 __c30_signature
                  0x001a5e          0x6 /opt/microchip/xc16/v1.10/bin/bin/../../lib/libm-elf.a(divsf3.eo)
 __c30_signature
                  0x001a64          0x6 /opt/microchip/xc16/v1.10/bin/bin/../../lib/libm-elf.a(divsi3.eo)
 __c30_signature
                  0x001a6a          0x6 /opt/microchip/xc16/v1.10/bin/bin/../../lib/libm-elf.a(floatsisf.eo)
 __c30_signature
                  0x001a70          0x6 /opt/microchip/xc16/v1.10/bin/bin/../../lib/libm-elf.a(floatunsisf.eo)
 __c30_signature
                  0x001a76          0x6 /opt/microchip/xc16/v1.10/bin/bin/../../lib/libm-elf.a(fpack.eo)
 __c30_signature
                  0x001a7c          0x6 /opt/microchip/xc16/v1.10/bin/bin/../../lib/libm-elf.a(funpack2.eo)
 __c30_signature
                  0x001a82          0x6 /opt/microchip/xc16/v1.10/bin/bin/../../lib/libm-elf.a(futil.eo)
 __c30_signature
                  0x001a88          0x6 /opt/microchip/xc16/v1.10/bin/bin/../../lib/libm-elf.a(modsi3.eo)
 __c30_signature
                  0x001a8e          0x6 /opt/microchip/xc16/v1.10/bin/bin/../../lib/libm-elf.a(powf.eo)
 __c30_signature
                  0x001a94          0x6 /opt/microchip/xc16/v1.10/bin/bin/../../lib/libm-elf.a(udivsi3.eo)
 __c30_signature
                  0x001a9a          0x6 /opt/microchip/xc16/v1.10/bin/bin/../../lib/libm-elf.a(umodsi3.eo)
 __c30_signature
                  0x001aa0          0x6 /opt/microchip/xc16/v1.10/bin/bin/../../lib/libm-elf.a(divmoddi3.eo)
 __c30_signature
                  0x001aa6          0x6 /opt/microchip/xc16/v1.10/bin/bin/../../lib/libm-elf.a(_frexpf.eo)
 __c30_signature
                  0x001aac          0x6 /opt/microchip/xc16/v1.10/bin/bin/../../lib/libm-elf.a(errno.eo)
 __c30_signature
                  0x001ab2          0x6 /opt/microchip/xc16/v1.10/bin/bin/../../lib/libm-elf.a(expf.eo)
 __c30_signature
                  0x001ab8          0x6 /opt/microchip/xc16/v1.10/bin/bin/../../lib/libm-elf.a(fchop.eo)
 __c30_signature
                  0x001abe          0x6 /opt/microchip/xc16/v1.10/bin/bin/../../lib/libm-elf.a(feqltle.eo)
 __c30_signature
                  0x001ac4          0x6 /opt/microchip/xc16/v1.10/bin/bin/../../lib/libm-elf.a(fgtge.eo)
 __c30_signature
                  0x001aca          0x6 /opt/microchip/xc16/v1.10/bin/bin/../../lib/libm-elf.a(fixsfsi.eo)
 __c30_signature
                  0x001ad0          0x6 /opt/microchip/xc16/v1.10/bin/bin/../../lib/libm-elf.a(funpack.eo)
 __c30_signature
                  0x001ad6          0x6 /opt/microchip/xc16/v1.10/bin/bin/../../lib/libm-elf.a(ldexpf.eo)
 __c30_signature
                  0x001adc          0x6 /opt/microchip/xc16/v1.10/bin/bin/../../lib/libm-elf.a(logf.eo)
 __c30_signature
                  0x001ae2          0x6 /opt/microchip/xc16/v1.10/bin/bin/../../lib/libm-elf.a(mulsf3.eo)
 __c30_signature
                  0x001ae8          0x6 /opt/microchip/xc16/v1.10/bin/bin/../../lib/libm-elf.a(fcompare.eo)
 __c30_signature
                  0x001aee          0x6 /opt/microchip/xc16/v1.10/bin/bin/../../lib/liblega-c-elf.a(memcpy.XXeo)
 __c30_signature
                  0x001af4          0x6 /opt/microchip/xc16/v1.10/bin/bin/../../lib/liblega-c-elf.a(strlen.XXeo)
 __c30_signature
                  0x001afa          0x6 /opt/microchip/xc16/v1.10/bin/bin/../../lib/liblega-c-elf.a(printf_cdnopuxX.XXeo)
 __c30_signature
                  0x001b00          0x6 /opt/microchip/xc16/v1.10/bin/bin/../../lib/liblega-c-elf.a(sprintf_cdfFnopsuxX.XXeo)
 __c30_signature
                  0x001b06          0x6 /opt/microchip/xc16/v1.10/bin/bin/../../lib/liblega-c-elf.a(xprintf_cdfFnopsuxX.XXeo)
 __c30_signature
                  0x001b0c          0x6 /opt/microchip/xc16/v1.10/bin/bin/../../lib/liblega-c-elf.a(xputfld_cdfFnopsuxX.XXeo)
 __c30_signature
                  0x001b12          0x6 /opt/microchip/xc16/v1.10/bin/bin/../../lib/liblega-c-elf.a(xldtob_cdfFnopsuxX.XXeo)
 __c30_signature
                  0x001b18          0x6 /opt/microchip/xc16/v1.10/bin/bin/../../lib/liblega-c-elf.a(xgenld_cdfFnopsuxX.XXeo)
 __c30_signature
                  0x001b1e          0x6 /opt/microchip/xc16/v1.10/bin/bin/../../lib/liblega-c-elf.a(div.XXeo)
 __c30_signature
                  0x001b24          0x6 /opt/microchip/xc16/v1.10/bin/bin/../../lib/liblega-c-elf.a(fwrite.XXeo)
 __c30_signature
                  0x001b2a          0x6 /opt/microchip/xc16/v1.10/bin/bin/../../lib/liblega-c-elf.a(ldiv.XXeo)
 __c30_signature
                  0x001b30          0x6 /opt/microchip/xc16/v1.10/bin/bin/../../lib/liblega-c-elf.a(memchr.XXeo)
 __c30_signature
                  0x001b36          0x6 /opt/microchip/xc16/v1.10/bin/bin/../../lib/liblega-c-elf.a(strchr.XXeo)
 __c30_signature
                  0x001b3c          0x6 /opt/microchip/xc16/v1.10/bin/bin/../../lib/liblega-c-elf.a(xfiles.XXeo)
 __c30_signature
                  0x001b42          0x6 /opt/microchip/xc16/v1.10/bin/bin/../../lib/liblega-c-elf.a(xfwprep.XXeo)
 __c30_signature
                  0x001b48          0x6 /opt/microchip/xc16/v1.10/bin/bin/../../lib/liblega-c-elf.a(xldunsca.XXeo)
 __c30_signature
                  0x001b4e          0x6 /opt/microchip/xc16/v1.10/bin/bin/../../lib/liblega-c-elf.a(xlitob.XXeo)
 __c30_signature
                  0x001b54          0x6 /opt/microchip/xc16/v1.10/bin/bin/../../lib/liblega-c-elf.a(xputtxt.XXeo)
 __c30_signature
                  0x001b5a          0x6 /opt/microchip/xc16/v1.10/bin/bin/../../lib/liblega-c-elf.a(xvacopy.XXeo)
 __c30_signature
                  0x001b60          0x6 /opt/microchip/xc16/v1.10/bin/bin/../../lib/liblega-c-elf.a(fclose.XXelo)
 __c30_signature
                  0x001b66          0x6 /opt/microchip/xc16/v1.10/bin/bin/../../lib/liblega-c-elf.a(fflush.XXelo)
 __c30_signature
                  0x001b6c          0x6 /opt/microchip/xc16/v1.10/bin/bin/../../lib/liblega-c-elf.a(xatexit.XXelo)
 __c30_signature
                  0x001b72          0x6 /opt/microchip/xc16/v1.10/bin/bin/../../lib/liblega-c-elf.a(xdnorm.XXelo)
 __c30_signature
                  0x001b78          0x6 /opt/microchip/xc16/v1.10/bin/bin/../../lib/liblega-c-elf.a(free.XXeo)
 __c30_signature
                  0x001b7e          0x6 /opt/microchip/xc16/v1.10/bin/bin/../../lib/liblega-c-elf.a(malloc.XXeo)
 __c30_signature
                  0x001b84          0x6 /opt/microchip/xc16/v1.10/bin/bin/../../lib/liblega-c-elf.a(xgetmem.XXeo)
 __c30_signature
                  0x001b8a          0x6 /opt/microchip/xc16/v1.10/bin/bin/../../lib/liblega-pic30-elf.a(close.Leo)
 __c30_signature
                  0x001b90          0x6 /opt/microchip/xc16/v1.10/bin/bin/../../lib/liblega-pic30-elf.a(write.Leo)
 __c30_signature
                  0x001b96          0x6 /opt/microchip/xc16/v1.10/bin/bin/../../lib/liblega-pic30-elf.a(remove.Leo)
 __c30_signature
                  0x001b9c          0x6 /opt/microchip/xc16/v1.10/bin/bin/../../lib/liblega-pic30-elf.a(sbrk.Leo)
 __c30_signature
                  0x001ba2          0x6 /opt/microchip/xc16/v1.10/bin/bin/../../lib/liblega-pic30-elf.a(c30_uart.Leo)
 __c30_signature
                  0x001ba8          0x6 /opt/microchip/xc16/v1.10/bin/bin/../../lib/liblega-pic30-elf.a(brk.Lelo)
 __c30_signature
                  0x001bae          0x6 /opt/microchip/xc16/v1.10/bin/bin/../../lib/libm-elf.a(deqltle.eo)
 __c30_signature
                  0x001bb4          0x6 /opt/microchip/xc16/v1.10/bin/bin/../../lib/libm-elf.a(dgtge.eo)
 __c30_signature
                  0x001bba          0x6 /opt/microchip/xc16/v1.10/bin/bin/../../lib/libm-elf.a(divdf3.eo)
 __c30_signature
                  0x001bc0          0x6 /opt/microchip/xc16/v1.10/bin/bin/../../lib/libm-elf.a(dpack.eo)
 __c30_signature
                  0x001bc6          0x6 /opt/microchip/xc16/v1.10/bin/bin/../../lib/libm-elf.a(dunpack2.eo)
 __c30_signature
                  0x001bcc          0x6 /opt/microchip/xc16/v1.10/bin/bin/../../lib/libm-elf.a(extendsfdf.eo)
 __c30_signature
                  0x001bd2          0x6 /opt/microchip/xc16/v1.10/bin/bin/../../lib/libm-elf.a(fixdfsi.eo)
 __c30_signature
                  0x001bd8          0x6 /opt/microchip/xc16/v1.10/bin/bin/../../lib/libm-elf.a(floatsidf.eo)
 __c30_signature
                  0x001bde          0x6 /opt/microchip/xc16/v1.10/bin/bin/../../lib/libm-elf.a(muldf3.eo)
 __c30_signature
                  0x001be4          0x6 /opt/microchip/xc16/v1.10/bin/bin/../../lib/libm-elf.a(subdf3.eo)
 __c30_signature
                  0x001bea          0x6 /opt/microchip/xc16/v1.10/bin/bin/../../lib/libm-elf.a(mulsi3.eo)
 __c30_signature
                  0x001bf0          0x6 /opt/microchip/xc16/v1.10/bin/bin/../../lib/libm-elf.a(adddf3.eo)
 __c30_signature
                  0x001bf6          0x6 /opt/microchip/xc16/v1.10/bin/bin/../../lib/libm-elf.a(dcompare.eo)
 __c30_signature
                  0x001bfc          0x6 /opt/microchip/xc16/v1.10/bin/bin/../../lib/libm-elf.a(dpropagateNaN.eo)
 __c30_signature
                  0x001c02          0x6 /opt/microchip/xc16/v1.10/bin/bin/../../lib/libm-elf.a(dtype.eo)
 __c30_signature
                  0x001c08          0x6 /opt/microchip/xc16/v1.10/bin/bin/../../lib/libm-elf.a(dunpack.eo)
 __c30_signature
                  0x001c0e          0x6 /opt/microchip/xc16/v1.10/bin/bin/../../lib/libm-elf.a(floatdidf.eo)

_0xf7007284649e193d
                    0x7fc0          0xc
 _0xf7007284649e193d
                    0x7fc0          0xc build/default/production/_ext/1077454706/analog2digital_udb5.o
                    0x7fc0                  _BufferB

_0xf7007228649e193d
                    0x7fe0          0xc
 _0xf7007228649e193d
                    0x7fe0          0xc build/default/production/_ext/1077454706/analog2digital_udb5.o
                    0x7fe0                  _BufferA

.nbss               0x0800        0x21a
 .nbss              0x0800        0x21a build/default/production/_ext/1472/main.o
                    0x0800                  _debug_buffer
                    0x0a00                  _delta_roll
                    0x0a02                  _roll_deviation
                    0x0a04                  _roll_reference
                    0x0a08                  _roll_angle
                    0x0a0a                  _offsetX
                    0x0a0c                  _offsetY
                    0x0a0e                  _offsetZ
                    0x0a10                  _tilt_x
                    0x0a12                  _tilt_y
                    0x0a14                  _tilt_t
                    0x0a16                  _accelOn

.ndata              0x0a1a         0xc2
 .ndata             0x0a1a         0xc2 build/default/production/_ext/1472/main.o
                    0x0a1a                  _db_index
                    0x0a1c                  _roll_angle_32
                    0x0a20                  _apogee
                    0x0a22                  _tilted
                    0x0a24                  _tenths
                    0x0a26                  _seconds
                    0x0a28                  _minutes
                    0x0a2a                  _tilt_defs
                    0x0aac                  _NUM_TILTS
                    0x0aae                  _tilt_index
                    0x0ab0                  _tilt_print_index
                    0x0ab2                  _controlModeYawPitch
                    0x0ab4                  _controlModeRoll
                    0x0ab6                  _launched
                    0x0ab8                  _accelEarthVertical
                    0x0aba                  _velocityEarthVertical
                    0x0abe                  _launch_count
                    0x0ac0                  _roll_feedback_vertical_pitch
                    0x0ac2                  _roll_feedback_vertical_yaw
                    0x0ac4                  _total_roll_feedback_vertical
                    0x0ac6                  _pitch_feedback_vertical
                    0x0ac8                  _yaw_feedback_vertical
                    0x0aca                  _roll_feedback_horizontal_pitch
                    0x0acc                  _roll_feedback_horizontal_yaw
                    0x0ace                  _total_roll_feedback_horizontal
                    0x0ad0                  _pitch_feedback_horizontal
                    0x0ad2                  _yaw_feedback_horizontal
                    0x0ad4                  _tilt_count
                    0x0ad6                  _t_start
                    0x0ad8                  _t_end
                    0x0ada                  _line_number

.nbss               0x0adc         0xac
 .nbss              0x0adc         0x58 build/default/production/_ext/1077454706/mpu6000.o
                    0x0adc                  _mpu_data
                    0x0aec                  _udb_xaccel
                    0x0af6                  _udb_yaccel
                    0x0b00                  _udb_zaccel
                    0x0b0a                  _udb_xrate
                    0x0b14                  _udb_yrate
                    0x0b1e                  _udb_zrate
                    0x0b28                  _mpu_temp
                    0x0b32                  _vref_adj
 .nbss              0x0b34         0x54 build/default/production/_ext/1077471063/gpsParseCommon.o
                    0x0b34                  _lat_origin
                    0x0b38                  _lon_origin
                    0x0b3c                  _alt_origin
                    0x0b40                  _lat_gps
                    0x0b44                  _lon_gps
                    0x0b48                  _alt_sl_gps
                    0x0b4c                  _week_no
                    0x0b4e                  _sog_gps
                    0x0b50                  _cog_gps
                    0x0b52                  _climb_gps
                    0x0b54                  _hilsim_airspeed
                    0x0b56                  _tow
                    0x0b5a                  _hdop
                    0x0b5b                  _svs
                    0x0b5c                  _gps_data_age
                    0x0b5e                  _lat_gps_
                    0x0b62                  _lon_gps_
                    0x0b66                  _alt_sl_gps_
                    0x0b6a                  _tow_
                    0x0b6e                  _hdop_
                    0x0b70                  _actual_dir
                    0x0b71                  _calculated_heading
                    0x0b7e                  _date_gps_
                    0x0b82                  _time_gps_

.ndata              0x0b88         0x50
 .ndata             0x0b88         0x50 build/default/production/_ext/1077471063/rmat.o
                    0x0b88                  _ggain
                    0x0b8e                  _spin_rate
                    0x0b90                  _rmat
                    0x0ba2                  _omegagyro
                    0x0ba8                  _omega
                    0x0bae                  _omegacorrI
                    0x0bb4                  _accelEarth
                    0x0bba                  _omegaAccum
                    0x0bc0                  _gplane
                    0x0bc6                  _aero_force
                    0x0bcc                  _dirOverGndHGPS
                    0x0bd2                  _dirOverGndHrmat

.nbss               0x0bd8         0x48
 .nbss              0x0bd8         0x48 build/default/production/_ext/1077454706/analog2digital_udb5.o
                    0x0bd8                  _udb_analogInputs
                    0x0c00                  _udb_vcc
                    0x0c0a                  _udb_5v
                    0x0c14                  _udb_vref
                    0x0c1e                  _sample_count

.ndata              0x0c20         0x38
 .ndata             0x0c20         0x38 build/default/production/_ext/1077471063/deadReckoning.o
                    0x0c20                  _dead_reckon_clock
                    0x0c22                  _IMUvelocityx
                    0x0c26                  _IMUvelocityy
                    0x0c2a                  _IMUvelocityz
                    0x0c2e                  _forward_ground_speed
                    0x0c30                  _IMUlocationx
                    0x0c34                  _IMUlocationy
                    0x0c38                  _IMUlocationz
                    0x0c3c                  _IMUintegralAccelerationx
                    0x0c40                  _IMUintegralAccelerationy
                    0x0c44                  _IMUintegralAccelerationz
                    0x0c48                  _air_speed_3DIMU
                    0x0c4a                  _total_energy
                    0x0c4c                  _locationErrorEarth
                    0x0c52                  _velocityErrorEarth

.nbss               0x0c58         0x2c
 .nbss              0x0c58         0x2c build/default/production/_ext/1077471063/rmat.o
                    0x0c7e                  _theta

.ndata              0x0c84         0x38
 .ndata             0x0c84         0x1e build/default/production/_ext/1077471063/gpsParseCommon.o
                    0x0c84                  _GPSlocation
                    0x0c8a                  _GPSvelocity
                    0x0c90                  _cos_lat
                    0x0c92                  _gps_out_buffer
                    0x0c94                  _gps_out_buffer_length
                    0x0c96                  _gps_out_index
                    0x0c98                  _ground_velocity_magnitudeXY
                    0x0c9a                  _forward_acceleration
                    0x0c9c                  _air_speed_magnitudeXY
                    0x0c9e                  _air_speed_3DGPS
 .ndata             0x0ca2         0x1a build/default/production/_ext/1077454706/magnetometer.o
                    0x0ca2                  _udb_magOffset
                    0x0ca8                  _udb_staticMagOffset
                    0x0cae                  _magGain
                    0x0cb4                  _rawMagCalib
                    0x0cba                  _magMessage

.nbss               0x0cbc         0x7a
 .nbss              0x0cbc         0x16 build/default/production/_ext/1077454706/radioIn.o
                    0x0cbc                  _udb_pwIn
                    0x0cbe                  _udb_pwTrim
 .nbss              0x0cd2         0x14 build/default/production/_ext/1077471063/gpsParseSTD.o
                    0x0cd2                  _payloadlength
                    0x0cd4                  _un
                    0x0cd5                  _svs_
                    0x0cd6                  _nav_valid_
                    0x0cd8                  _nav_type_
                    0x0cda                  _sog_gps_
                    0x0cdc                  _climb_gps_
                    0x0cde                  _week_no_
                    0x0ce0                  _cog_gps_
                    0x0ce2                  _checksum_
                    0x0ce4                  _calculated_checksum
 .nbss              0x0ce6         0x14 build/default/production/_ext/1077454706/servoOut.o
                    0x0ce6                  _udb_pwOut
 .nbss              0x0cfa         0x12 build/default/production/_ext/1077471063/estAltitude.o
                    0x0cfa                  _barometer_altitude
                    0x0cfe                  _barometer_agl_altitude
                    0x0d02                  _barometer_pressure
                    0x0d06                  _barometer_temperature
                    0x0d08                  _sea_level_pressure
 .nbss              0x0d0c          0xc build/default/production/_ext/1077471063/estWind.o
 .nbss              0x0d18          0xc build/default/production/_ext/1077454706/magnetometer.o
                    0x0d18                  _udb_magFieldBody
                    0x0d1e                  _magFieldRaw
 .nbss              0x0d24          0xa build/default/production/_ext/1077454706/mpu_spi.o
 .nbss              0x0d2e          0x8 build/default/production/_ext/1077454706/background.o

.ndata              0x0d36         0x14
 .ndata             0x0d36          0x6 build/default/production/_ext/1077471063/estWind.o
                    0x0d36                  _estimatedWind
 .ndata             0x0d3c          0x6 build/default/production/_ext/1077471063/estAltitude.o
                    0x0d3c                  _barometer_pressure_gnd
                    0x0d40                  _barometer_temperature_gnd
 .ndata             0x0d42          0x4 build/default/production/_ext/1077471063/gpsParseSTD.o
                    0x0d42                  _msg_parse
                    0x0d44                  _store_index
 .ndata             0x0d46          0x4 build/default/production/_ext/1077454706/mpu6000.o
                    0x0d46                  _mpuCnt
                    0x0d48                  _mpuDAV

_0xf6f12f18649e193d
                    0x0d4a          0x4
 _0xf6f12f18649e193d
                    0x0d4a          0x4 build/default/production/_ext/1077454706/mcu.o
                    0x0d4a                  _trap_source

.ndata              0x0d4e          0x4
 .ndata             0x0d4e          0x4 build/default/production/_ext/1077454706/heartbeat.o
                    0x0d4e                  _one_hertz_flag
                    0x0d50                  _udb_heartbeat_counter

.nbss               0x0d52          0x4
 .nbss              0x0d52          0x2 build/default/production/_ext/1077471063/libDCM.o
                    0x0d52                  _dcm_flags
 .nbss              0x0d54          0x2 build/default/production/_ext/1077454706/libUDB.o
                    0x0d54                  _udb_flags

.ndata              0x0d56          0x6
 .ndata             0x0d56          0x2 build/default/production/_ext/1077454706/analog2digital_udb5.o
                    0x0d56                  _DmaBuffer
 .ndata             0x0d58          0x2 build/default/production/_ext/1077454706/eeprom_udb4.o
 .ndata             0x0d5a          0x2 build/default/production/_ext/1077454706/mcu.o
                    0x0d5a                  _defaultCorcon

_0xf6f12ebc649e193d
                    0x0d5c          0x2
 _0xf6f12ebc649e193d
                    0x0d5c          0x2 build/default/production/_ext/1077454706/mcu.o
                    0x0d5c                  _trap_flags

_0xf6f12f74649e193d
                    0x0d5e          0x2
 _0xf6f12f74649e193d
                    0x0d5e          0x2 build/default/production/_ext/1077454706/mcu.o
                    0x0d5e                  _osc_fail_count

.ndata              0x0d60          0x2
 .ndata             0x0d60          0x2 build/default/production/_ext/1077454706/mpu_spi.o

.nbss               0x0d62          0x2
 .nbss              0x0d62          0x2 /opt/microchip/xc16/v1.10/bin/bin/../../lib/libm-elf.a(errno.eo)
                    0x0d62                  _errno

.data._Stdin        0x0d64         0x88
 .data._Stdin       0x0d64         0x88 /opt/microchip/xc16/v1.10/bin/bin/../../lib/liblega-c-elf.a(xfiles.XXeo)
                    0x0d64                  __Stdin
                    0x0d8c                  __Stdout
                    0x0db4                  __Stderr
                    0x0ddc                  __Files

.data               0x0dec         0x58
 .data              0x0dec         0x58 /opt/microchip/xc16/v1.10/bin/bin/../../lib/liblega-c-elf.a(xldtob_cdfFnopsuxX.XXeo)

.data.udigs         0x0e44         0x22
 .data.udigs        0x0e44         0x22 /opt/microchip/xc16/v1.10/bin/bin/../../lib/liblega-c-elf.a(xlitob.XXeo)

.data               0x0e66         0x1a
 .data              0x0e66         0x1a /opt/microchip/xc16/v1.10/bin/bin/../../lib/liblega-c-elf.a(xprintf_cdfFnopsuxX.XXeo)

.bss                0x7fcc          0x6
 .bss               0x7fcc          0x6 build/default/production/_ext/1077454706/traps_asm.o
                    0x7fcc                  _JmpStckPtr
                    0x7fce                  _JmpAddrLow
                    0x7fd0                  _JmpAddrHgh

.data._Aldata       0x7fd2          0x6
 .data._Aldata      0x7fd2          0x6 /opt/microchip/xc16/v1.10/bin/bin/../../lib/liblega-c-elf.a(malloc.XXeo)
                    0x7fd2                  __Aldata
                    0x7fd6                  __Size_block

.data               0x7fd8          0x2
 .data              0x7fd8          0x2 /opt/microchip/xc16/v1.10/bin/bin/../../lib/liblega-c-elf.a(xgenld_cdfFnopsuxX.XXeo)

.bss                0x7fda          0x2
 .bss               0x7fda          0x2 /opt/microchip/xc16/v1.10/bin/bin/../../lib/liblega-c-elf.a(fclose.XXelo)

.data.__C30_UART
                    0x7fdc          0x2
 .data.__C30_UART
                    0x7fdc          0x2 /opt/microchip/xc16/v1.10/bin/bin/../../lib/liblega-pic30-elf.a(c30_uart.Leo)
                    0x7fdc                  ___C30_UART

.bss                0x7fde          0x2
 .bss               0x7fde          0x2 /opt/microchip/xc16/v1.10/bin/bin/../../lib/liblega-pic30-elf.a(brk.Lelo)
                    0x7fde                  ___curbrk

.heap               0x0e80        0x100
 .heap              0x0e80        0x100 heap

.const              0xa99e        0x4d4 load address 0x00299e  
 .const             0xa99e        0x332 build/default/production/_ext/1472/main.o
 .const             0xacd0         0xe0 build/default/production/_ext/1077471063/gpsParseSTD.o
                    0xacd0                  _bin_mode
                    0xacec                  _mode
                    0xacf6                  _mode_length
                    0xacf8                  _msg41parse
 .const             0xadb0         0x82 build/default/production/_ext/1077471063/mathlibNAV.o
                    0xadb0                  _sintab
 .const             0xae32         0x34 build/default/production/_ext/1077454706/mpu6000.o
 .const             0xae66          0xc build/default/production/_ext/1077471063/gpsParseCommon.o
                    0xae66                  _days_in_month

.text             0x002e72       0x1d8e
 .text            0x002e72        0x8cc build/default/production/_ext/1472/main.o
                  0x002e72                  _main
                  0x002e94                  _init_events
                  0x002e9a                  _udb_heartbeat_40hz_callback
                  0x002eda                  _dcm_callback_gps_location_updated
                  0x002efc                  _saturate
                  0x002f28                  _saturate_32
                  0x002f6c                  _remove_offset
                  0x002f8c                  _tilt_feedback
                  0x002fb4                  _roll_feedback
                  0x00309e                  _dcm_heartbeat_callback
                  0x0033a0                  _send_debug_line
                  0x003708                  _udb_serial_callback_get_byte_to_send
                  0x00372a                  _udb_serial_callback_received_byte
                  0x003732                  _udb_callback_radio_did_turn_off
                  0x003738                  _osd_init
 .text            0x00373e        0x7e6 build/default/production/_ext/1077471063/mathlibNAV.o
                  0x00373e                  _sine
                  0x00379a                  _arcsine
                  0x00383a                  _cosine
                  0x003848                  _rotate_2D_vector_by_vector
                  0x0038b6                  _rotate_2D_long_vector_by_vector
                  0x003914                  _rotate_2D_vector_by_angle
                  0x003930                  _rotate_2D
                  0x00399a                  _rect_to_polar
                  0x003a4e                  _rect_to_polar16
                  0x003b28                  _sqrt_int
                  0x003b92                  _sqrt_long
                  0x003c34                  _vector2_mag
                  0x003c54                  _vector3_mag
                  0x003c80                  _vector2_normalize
                  0x003ce2                  _vector3_normalize
                  0x003d6c                  _long_scale
                  0x003dfa                  _find_first_bit_int16
                  0x003e22                  _find_first_bit_int32
                  0x003e74                  _VectorCross
 .text            0x003f24        0x532 build/default/production/_ext/1077471063/rmat.o
                  0x003f24                  _yaw_drift_reset
                  0x003f36                  _dcm_init_rmat
                  0x003f72                  _read_accel
                  0x003fda                  _udb_callback_read_sensors
                  0x004442                  _dcm_run_imu_step
 .text            0x004456        0x492 build/default/production/_ext/1077471063/gpsParseCommon.o
                  0x004456                  _get_gps_date
                  0x004460                  _get_gps_time
                  0x00446a                  _gps_init
                  0x004472                  _gpsoutbin
                  0x00448e                  _gpsoutline
                  0x0044a4                  _udb_gps_callback_get_byte_to_send
                  0x0044d0                  _udb_gps_callback_received_byte
                  0x0044de                  _gps_nav_capable_check_set
                  0x004510                  _gps_parse_common
                  0x00451a                  build/default/production/_ext/1077471063/gpsParseCommon.o:_udb_background_callback_triggered
                  0x00470a                  _calculate_week_num
                  0x0047fe                  _calculate_time_of_week
 .text            0x0048e8        0x318 build/default/production/_ext/1077454706/radioIn.o
                  0x0048e8                  _udb_servo_record_trims
                  0x004910                  _udb_init_capture
                  0x004956                  _radioIn_failsafe_check
                  0x004982                  _radioIn_failsafe_reset
                  0x0049d0                  __IC1Interrupt
                  0x004a20                  __IC2Interrupt
                  0x004a70                  __IC3Interrupt
                  0x004ac0                  __IC4Interrupt
                  0x004b10                  __IC5Interrupt
                  0x004b60                  __IC6Interrupt
                  0x004bb0                  __IC7Interrupt

.dinit            0x004c00        0x2e8
 .dinit           0x004c00        0x2e8 data_init

.text             0x004ee8       0x1894
 .text            0x004ee8        0x292 build/default/production/_ext/1077471063/deadReckoning.o
                  0x004ee8                  _dead_reckon
 .text            0x00517a        0x276 build/default/production/_ext/1077471063/estWind.o
                  0x00517a                  _estimateWind
 .text            0x0053f0        0x266 build/default/production/_ext/1077454706/serialIO.o
                  0x0053f0                  _udb_init_GPS
                  0x005450                  _udb_gps_set_rate
                  0x005478                  _udb_gps_check_rate
                  0x0054a8                  _udb_gps_start_sending_data
                  0x0054b0                  __U1TXInterrupt
                  0x0054e8                  __U1RXInterrupt
                  0x005522                  _udb_init_USART
                  0x005584                  _udb_serial_set_rate
                  0x0055ac                  _udb_serial_check_rate
                  0x0055dc                  _udb_serial_start_sending_data
                  0x0055e4                  __U2TXInterrupt
                  0x00561c                  __U2RXInterrupt
 .text            0x005656        0x22e build/default/production/_ext/1077454706/analog2digital_udb5.o
                  0x005656                  _udb_init_ADC
                  0x005724                  __DMA0Interrupt
 .text            0x005884        0x210 build/default/production/_ext/1077471063/libDCM.o
                  0x005884                  _dcm_init
                  0x005892                  _dcm_align_tilt
                  0x005912                  _dcm_run_init_step
                  0x005940                  _udb_heartbeat_callback
                  0x005962                  _dcm_calibrate
                  0x005974                  _dcm_set_origin_location
                  0x0059b2                  _dcm_absolute_to_relative
                  0x005a0e                  _dcm_rel2abs
 .text            0x005a94        0x1f4 build/default/production/_ext/1077454706/eeprom_udb4.o
                  0x005a94                  _udb_eeprom_init
                  0x005b92                  _eeprom_ByteWrite
                  0x005bb8                  _eeprom_PageWrite
                  0x005bf8                  _eeprom_ByteRead
                  0x005c2a                  _eeprom_SequentialRead
 .text            0x005c88        0x1d2 build/default/production/_ext/1077454706/servoOut.o
                  0x005c88                  _udb_init_pwm
                  0x005cd0                  _udb_set_action_state
                  0x005cec                  _start_pwm_outputs
                  0x005d02                  __T4Interrupt
 .text            0x005e5a        0x1cc build/default/production/_ext/1077471063/gpsParseSTD.o
                  0x005e5a                  _gps_nav_valid
                  0x005e6a                  _gps_startup_sequence
                  0x005ea8                  build/default/production/_ext/1077471063/gpsParseSTD.o:_msg_B3
                  0x005ebc                  build/default/production/_ext/1077471063/gpsParseSTD.o:_msg_A0
                  0x005eda                  build/default/production/_ext/1077471063/gpsParseSTD.o:_msg_A2
                  0x005eea                  build/default/production/_ext/1077471063/gpsParseSTD.o:_msg_PL1
                  0x005f00                  build/default/production/_ext/1077471063/gpsParseSTD.o:_msg_PL2
                  0x005f3a                  build/default/production/_ext/1077471063/gpsParseSTD.o:_msg_MSG41
                  0x005f82                  build/default/production/_ext/1077471063/gpsParseSTD.o:_msg_MSGU
                  0x005faa                  build/default/production/_ext/1077471063/gpsParseSTD.o:_msg_B0
                  0x005fd8                  _gps_commit_data
                  0x006016                  _gps_update_basic_data
                  0x006020                  _init_gps_std
 .text            0x006026        0x198 build/default/production/_ext/1077454706/mpu_spi.o
                  0x006026                  _initMPUSPI_master16
                  0x006064                  _writeMPUSPIreg16
                  0x00609a                  build/default/production/_ext/1077454706/mpu_spi.o:_no_call_back
                  0x0060a0                  _readMPUSPI_burst16n
                  0x0060d8                  __SPI2Interrupt
                  0x006184                  _readMPUSPIreg16
 .text            0x0061be        0x178 build/default/production/_ext/1077454706/background.o
                  0x0061be                  _udb_cpu_load
                  0x0061d0                  _init_heartbeat
                  0x00622a                  _cpu_load_calc
                  0x006266                  _udb_init_clock
                  0x006274                  __T1Interrupt
                  0x00629c                  __T5Interrupt
                  0x0062ba                  __T6Interrupt
                  0x0062ea                  _udb_background_trigger_pulse
                  0x0062f8                  __T7Interrupt
                  0x006328                  _udb_background_trigger
 .text            0x006336        0x104 build/default/production/_ext/1077454706/mcu.o
                  0x006336                  _get_reset_flags
                  0x006354                  _configureDigitalIO
                  0x0063e4                  _init_leds
                  0x0063fa                  _mcu_init
 .text            0x00643a         0xfa build/default/production/_ext/1077454706/mpu6000.o
                  0x00643a                  _MPU6000_init16
                  0x0064a2                  _process_MPU_data
                  0x0064c8                  _MPU6000_read
                  0x0064de                  __INT3Interrupt
                  0x006506                  _MPU6000_print
 .text            0x006534         0xa0 build/default/production/_ext/1077454706/heartbeat.o
                  0x006534                  _heartbeat_chk
                  0x006560                  _heartbeat_cnt
                  0x006568                  _heartbeat
                  0x0065a4                  build/default/production/_ext/1077454706/heartbeat.o:_pulse
 .text            0x0065d4         0x7c build/default/production/_ext/1077454706/libUDB.o
                  0x0065d4                  _udb_init
                  0x0065fc                  _udb_run
                  0x006604                  _udb_a2d_record_offsets
                  0x006622                  _udb_servo_pulsesat
 .text            0x006650         0x7a build/default/production/_ext/1077471063/estAltitude.o
                  0x006650                  _get_barometer_temperature
                  0x006658                  _get_barometer_pressure
                  0x006662                  _get_barometer_altitude
                  0x00666c                  _get_barometer_agl_altitude
                  0x006676                  _altimeter_calibrate
                  0x0066c4                  _estAltitude
 .text            0x0066ca         0x72 build/default/production/_ext/1077471063/estYawDrift.o
                  0x0066ca                  _dcm_enable_yaw_drift_correction
                  0x0066ec                  _estYawDrift
 .text            0x00673c         0x40 build/default/production/_ext/1077454706/traps_asm.o
                  0x00673c                  _SP_start
                  0x006740                  _SP_limit
                  0x006744                  _SP_current
                  0x006748                  _getErrLoc
                  0x00675e                  _setjmp
                  0x006774                  _gentrap

.init.delay32     0x00677c         0x1c
 .init.delay32    0x00677c         0x1c /opt/microchip/xc16/v1.10/bin/bin/../../lib/liblega-pic30-elf.a(delay32.Leo)
                  0x00677c                  ___delay32

.text             0x006798          0xc
 .text            0x006798          0xc build/default/production/_ext/1077454706/analogs.o
                  0x006798                  _init_analogs
                  0x00679e                  _calculate_analog_sensor_values
